 ConverterDLL

 Timestamp is 4d5a9b7d (Tue Feb 15 10:27:57 2011)

 Preferred load address is 10000000

 Start         Length     Name                   Class
 0001:00000000 0002b028H .text                   CODE
 0001:0002b030 0000273cH .text$x                 CODE
 0001:0002d770 00000201H .text$yc                CODE
 0001:0002d980 00000040H .text$yd                CODE
 0002:00000000 000006bcH .idata$5                DATA
 0002:000006c0 00003f20H .rdata                  DATA
 0002:000045e0 0000005cH .rdata$debug            DATA
 0002:0000463c 00000f18H .rdata$r                DATA
 0002:00005560 0000026cH .rdata$sxdata           DATA
 0002:000057d0 000026e4H .xdata$x                DATA
 0002:00007eb4 000000b4H .idata$2                DATA
 0002:00007f68 00000014H .idata$3                DATA
 0002:00007f7c 000006bcH .idata$4                DATA
 0002:00008638 00005a08H .idata$6                DATA
 0002:0000e040 000001e8H .edata                  DATA
 0003:00000000 00000750H .data                   DATA
 0003:00000750 00000424H .bss                    DATA
 0004:00000000 00000030H .CRT$XCU                DATA

  Address         Publics by Value              Rva+Base       Lib:Object

 0000:00000000       __except_list              00000000     <absolute>
 0000:0000009b       ___safe_se_handler_count   0000009b     <absolute>
 0000:00009876       __fltused                  00009876     <absolute>
 0000:00009876       __ldused                   00009876     <absolute>
 0001:00000010       ?drawArrays@PrimitiveWriter@@UAEXIHH@Z 10001010 f   main.obj
 0001:00000350       ?ToLower@@YA?AV?$basic_string@DU?$char_traits@D@std@@V?$allocator@D@2@@std@@V12@@Z 10001350 f   main.obj
 0001:00000410       ?ToFileType@@YA?AV?$basic_string@DU?$char_traits@D@std@@V?$allocator@D@2@@std@@PBD@Z 10001410 f   main.obj
 0001:00000550       ?ToFileType@@YA?AV?$basic_string@DU?$char_traits@D@std@@V?$allocator@D@2@@std@@PAD@Z 10001550 f   main.obj
 0001:00000680       _Startup                   10001680 f   main.obj
 0001:000007b0       _Shutdown                  100017b0 f   main.obj
 0001:000007c0       ?LoadSceneFromFile@@YA_NPADPAVGroup@osg@@AAPADPAVOptions@osgDB@@@Z 100017c0 f   main.obj
 0001:000008c0       ?LoadSceneFromStream@@YA_NAAV?$basic_stringstream@DU?$char_traits@D@std@@V?$allocator@D@2@@std@@PADPAVGroup@osg@@AAPADPAVOptions@osgDB@@@Z 100018c0 f   main.obj
 0001:00000b80       ?SaveSceneToStream@@YA_NAAV?$basic_stringstream@DU?$char_traits@D@std@@V?$allocator@D@2@@std@@AAHPBDPAVNode@osg@@AAPAD@Z 10001b80 f   main.obj
 0001:00000fe0       _VerifyTypeFile            10001fe0 f   main.obj
 0001:00001110       _VerifyType                10002110 f   main.obj
 0001:000013f0       ?SimplifyScene@@YAXPAVNode@osg@@M@Z 100023f0 f   main.obj
 0001:00001550       ?GetVertexCount@@YA?AU?$pair@HH@std@@PAVNode@osg@@@Z 10002550 f   main.obj
 0001:00001650       ?ConvertZipEntry@@YA_NPAVZipEntry@@PAUHZIP__@@PBDAAVOptionsReader@@AAPAD@Z 10002650 f   main.obj
 0001:00002510       ?RecompressTGA@@YAXAAPAXAAH@Z 10003510 f   main.obj
 0001:000027a0       ?ReEncodeImage@@YA_NAAPAXAAHV?$basic_string@DU?$char_traits@D@std@@V?$allocator@D@2@@std@@VOptionsReader@@@Z 100037a0 f   main.obj
 0001:00002b30       ?ReSizeImage@@YA_NAAPAXAAHV?$basic_string@DU?$char_traits@D@std@@V?$allocator@D@2@@std@@VOptionsReader@@@Z 10003b30 f   main.obj
 0001:00002f10       ?ResizeTexture@@YAXV?$basic_string@DU?$char_traits@D@std@@V?$allocator@D@2@@std@@AAPAXAAHAAVOptionsReader@@@Z 10003f10 f   main.obj
 0001:00003170       ?ResizeTextures@@YAXAAPAXAAHAAVOptionsReader@@@Z 10004170 f   main.obj
 0001:00003940       ?ConvertTextures@@YAXAAPAXAAHAAVOptionsReader@@@Z 10004940 f   main.obj
 0001:00004080       _DeleteCMemory             10005080 f   main.obj
 0001:000040d0       _ConvertZipStream          100050d0 f   main.obj
 0001:00005b30       _Convert                   10006b30 f   main.obj
 0001:00005f80       _ConvertFiles              10006f80 f   main.obj
 0001:000062f0       _CountVerticies            100072f0 f   main.obj
 0001:00006570       _CountVerticiesFile        10007570 f   main.obj
 0001:00006660       _GetTextureReferences      10007660 f   main.obj
 0001:00006a00       _GetTextureReferencesFile  10007a00 f   main.obj
 0001:00006bf0       _GetTransformPropertiesFile 10007bf0 f   main.obj
 0001:00007270       _GetTransformProperties    10008270 f   main.obj
 0001:00007b70       _GetTexturesOnObjects      10008b70 f   main.obj
 0001:000080b0       _GetTexturesOnObjectsFile  100090b0 f   main.obj
 0001:00008430       _DllMain@12                10009430 f   main.obj
 0001:00008440       ?writeTriangle@PrimitiveWriter@@QAEXIII@Z 10009440 f i main.obj
 0001:00008460       ?writeLine@PrimitiveWriter@@QAEXII@Z 10009460 f i main.obj
 0001:00008480       ?writePoint@PrimitiveWriter@@QAEXI@Z 10009480 f i main.obj
 0001:000084a0       ??_H@YGXPAXIHP6EPAX0@Z@Z   100094a0 f i main.obj
 0001:000084d0       ??0ReentrantMutex@OpenThreads@@QAE@XZ 100094d0 f i main.obj
 0001:00008500       ??_EReentrantMutex@OpenThreads@@UAEPAXI@Z 10009500 f i main.obj
 0001:00008500       ??_GReentrantMutex@OpenThreads@@UAEPAXI@Z 10009500 f i main.obj
 0001:00008530       ??1ReentrantMutex@OpenThreads@@UAE@XZ 10009530 f i main.obj
 0001:00008550       ?setLibraryFilePathList@osgDB@@YAXABV?$basic_string@DU?$char_traits@D@std@@V?$allocator@D@2@@std@@@Z 10009550 f i main.obj
 0001:00008570       ??0FixNamesVisitor@@QAE@XZ 10009570 f i main.obj
 0001:00008610       ?apply@FixNamesVisitor@@UAEXAAVGeode@osg@@@Z 10009610 f i main.obj
 0001:00008860       ?replace@FixNamesVisitor@@AAE?AV?$basic_string@DU?$char_traits@D@std@@V?$allocator@D@2@@std@@V23@DD@Z 10009860 f i main.obj
 0001:00008960       ?apply@FixNamesVisitor@@UAEXAAVNode@osg@@@Z 10009960 f i main.obj
 0001:00008ac0       ??_GFixNamesVisitor@@UAEPAXI@Z 10009ac0 f i main.obj
 0001:00008ac0       ??_EFixNamesVisitor@@UAEPAXI@Z 10009ac0 f i main.obj
 0001:00008b00       ??_DFixNamesVisitor@@QAEXXZ 10009b00 f i main.obj
 0001:00008b30       ??1FixNamesVisitor@@UAE@XZ 10009b30 f i main.obj
 0001:00008b50       ??1WriteResult@ReaderWriter@osgDB@@QAE@XZ 10009b50 f i main.obj
 0001:00008b70       ??_GOptimizer@osgUtil@@UAEPAXI@Z 10009b70 f i main.obj
 0001:00008b70       ??_EOptimizer@osgUtil@@UAEPAXI@Z 10009b70 f i main.obj
 0001:00008ba0       ??_ETriStripVisitor@osgUtil@@UAEPAXI@Z 10009ba0 f i main.obj
 0001:00008ba0       ??_GTriStripVisitor@osgUtil@@UAEPAXI@Z 10009ba0 f i main.obj
 0001:00008be0       ??0Triangulator@@QAE@XZ    10009be0 f i main.obj
 0001:00008ca0       ?apply@Triangulator@@UAEXAAVGeode@osg@@@Z 10009ca0 f i main.obj
 0001:00008d70       ?apply@Triangulator@@UAEXAAVNode@osg@@@Z 10009d70 f i main.obj
 0001:00008d90       ?Triangulate@Triangulator@@QAEXXZ 10009d90 f i main.obj
 0001:00008e20       ?ProcessGeometry@Triangulator@@AAEXPAVGeometry@osg@@@Z 10009e20 f i main.obj
 0001:000090a0       ?getDrawElements@DrawElements@osg@@UAEPAV12@XZ 1000a0a0 f i main.obj
 0001:000090b0       ?getDrawElements@DrawElements@osg@@UBEPBV12@XZ 1000a0b0 f i main.obj
 0001:000090c0       ??_EDrawElementsUInt@osg@@MAEPAXI@Z 1000a0c0 f i main.obj
 0001:000090c0       ??_GDrawElementsUInt@osg@@MAEPAXI@Z 1000a0c0 f i main.obj
 0001:000090f0       ??_GTriangulator@@UAEPAXI@Z 1000a0f0 f i main.obj
 0001:000090f0       ??_ETriangulator@@UAEPAXI@Z 1000a0f0 f i main.obj
 0001:00009130       ??_DTriangulator@@QAEXXZ   1000a130 f i main.obj
 0001:00009160       ??1Triangulator@@UAE@XZ    1000a160 f i main.obj
 0001:000091c0       ??_GOptions@osgDB@@MAEPAXI@Z 1000a1c0 f i main.obj
 0001:000091c0       ??_EOptions@osgDB@@MAEPAXI@Z 1000a1c0 f i main.obj
 0001:000091f0       ??_G?$basic_stringstream@DU?$char_traits@D@std@@V?$allocator@D@2@@std@@UAEPAXI@Z 1000a1f0 f i main.obj
 0001:000091f0       ??_E?$basic_stringstream@DU?$char_traits@D@std@@V?$allocator@D@2@@std@@UAEPAXI@Z 1000a1f0 f i main.obj
 0001:00009230       ??0GatherGeometryVisitor@@QAE@XZ 1000a230 f i main.obj
 0001:000092f0       ?apply@GatherGeometryVisitor@@UAEXAAVGeode@osg@@@Z 1000a2f0 f i main.obj
 0001:000093c0       ?apply@GatherGeometryVisitor@@UAEXAAVNode@osg@@@Z 1000a3c0 f i main.obj
 0001:000093e0       ??_EGatherGeometryVisitor@@UAEPAXI@Z 1000a3e0 f i main.obj
 0001:000093e0       ??_GGatherGeometryVisitor@@UAEPAXI@Z 1000a3e0 f i main.obj
 0001:00009420       ??_DGatherGeometryVisitor@@QAEXXZ 1000a420 f i main.obj
 0001:00009450       ??1GatherGeometryVisitor@@UAE@XZ 1000a450 f i main.obj
 0001:000094b0       ??0CountVertsVisitor@@QAE@XZ 1000a4b0 f i main.obj
 0001:00009570       ?apply@CountVertsVisitor@@UAEXAAVGeode@osg@@@Z 1000a570 f i main.obj
 0001:000096e0       ??0PrimitiveWriter@@QAE@PAVGeometry@osg@@@Z 1000a6e0 f i main.obj
 0001:00009760       ??1PrimitiveIndexFunctor@osg@@UAE@XZ 1000a760 f i main.obj
 0001:00009780       ??_GPrimitiveIndexFunctor@osg@@UAEPAXI@Z 1000a780 f i main.obj
 0001:00009780       ??_EPrimitiveIndexFunctor@osg@@UAEPAXI@Z 1000a780 f i main.obj
 0001:000097b0       ?setVertexArray@PrimitiveWriter@@UAEXIPBVVec2f@osg@@@Z 1000a7b0 f i main.obj
 0001:000097c0       ?setVertexArray@PrimitiveWriter@@UAEXIPBVVec3f@osg@@@Z 1000a7c0 f i main.obj
 0001:000097d0       ?setVertexArray@PrimitiveWriter@@UAEXIPBVVec4f@osg@@@Z 1000a7d0 f i main.obj
 0001:000097e0       ?setVertexArray@PrimitiveWriter@@UAEXIPBVVec2d@osg@@@Z 1000a7e0 f i main.obj
 0001:000097f0       ?setVertexArray@PrimitiveWriter@@UAEXIPBVVec3d@osg@@@Z 1000a7f0 f i main.obj
 0001:00009800       ?setVertexArray@PrimitiveWriter@@UAEXIPBVVec4d@osg@@@Z 1000a800 f i main.obj
 0001:00009810       ?begin@PrimitiveWriter@@UAEXI@Z 1000a810 f i main.obj
 0001:00009840       ?vertex@PrimitiveWriter@@UAEXI@Z 1000a840 f i main.obj
 0001:00009860       ?end@PrimitiveWriter@@UAEXXZ 1000a860 f i main.obj
 0001:000098b0       ?drawElements@PrimitiveWriter@@UAEXIHPBE@Z 1000a8b0 f i main.obj
 0001:000098e0       ?drawElements@PrimitiveWriter@@UAEXIHPBG@Z 1000a8e0 f i main.obj
 0001:00009910       ?drawElements@PrimitiveWriter@@UAEXIHPBI@Z 1000a910 f i main.obj
 0001:00009940       ??_GPrimitiveWriter@@UAEPAXI@Z 1000a940 f i main.obj
 0001:00009940       ??_EPrimitiveWriter@@UAEPAXI@Z 1000a940 f i main.obj
 0001:00009970       ??0PrimitiveIndexFunctor@osg@@QAE@XZ 1000a970 f i main.obj
 0001:00009990       ??1PrimitiveWriter@@UAE@XZ 1000a990 f i main.obj
 0001:000099f0       ?apply@CountVertsVisitor@@UAEXAAVNode@osg@@@Z 1000a9f0 f i main.obj
 0001:00009a10       ??_ECountVertsVisitor@@UAEPAXI@Z 1000aa10 f i main.obj
 0001:00009a10       ??_GCountVertsVisitor@@UAEPAXI@Z 1000aa10 f i main.obj
 0001:00009a50       ??_DCountVertsVisitor@@QAEXXZ 1000aa50 f i main.obj
 0001:00009a80       ??1CountVertsVisitor@@UAE@XZ 1000aa80 f i main.obj
 0001:00009aa0       ??_GGroup@osg@@MAEPAXI@Z   1000aaa0 f i main.obj
 0001:00009aa0       ??_EGroup@osg@@MAEPAXI@Z   1000aaa0 f i main.obj
 0001:00009ad0       ?GetReducePolys@OptionsReader@@QAE_NXZ 1000aad0 f i main.obj
 0001:00009af0       ?GetPolygonReductionThreshold@OptionsReader@@QAEMXZ 1000aaf0 f i main.obj
 0001:00009b10       ?GetMetadataGathering@OptionsReader@@QAE_NXZ 1000ab10 f i main.obj
 0001:00009b30       ??0ConditionPathsCallback@@QAE@AAVOptionsReader@@@Z 1000ab30 f i main.obj
 0001:00009c10       ?readNode@ManageMemoryCallback@@UAE?AVReadResult@ReaderWriter@osgDB@@ABV?$basic_string@DU?$char_traits@D@std@@V?$allocator@D@2@@std@@PBVOptions@4@@Z 1000ac10 f i main.obj
 0001:00009cc0       ?readObject@ManageMemoryCallback@@UAE?AVReadResult@ReaderWriter@osgDB@@ABV?$basic_string@DU?$char_traits@D@std@@V?$allocator@D@2@@std@@PBVOptions@4@@Z 1000acc0 f i main.obj
 0001:00009d70       ?readHeightField@ManageMemoryCallback@@UAE?AVReadResult@ReaderWriter@osgDB@@ABV?$basic_string@DU?$char_traits@D@std@@V?$allocator@D@2@@std@@PBVOptions@4@@Z 1000ad70 f i main.obj
 0001:00009e20       ??0OptionsReader@@QAE@XZ   1000ae20 f i main.obj
 0001:00009f60       ??1?$map@V?$basic_string@DU?$char_traits@D@std@@V?$allocator@D@2@@std@@V12@U?$less@V?$basic_string@DU?$char_traits@D@std@@V?$allocator@D@2@@std@@@2@V?$allocator@U?$pair@$$CBV?$basic_string@DU?$char_traits@D@std@@V?$allocator@D@2@@std@@V12@@std@@@2@@std@@QAE@XZ 1000af60 f i main.obj
 0001:00009f80       ?readShader@ImageCallback@@UAE?AVReadResult@ReaderWriter@osgDB@@ABV?$basic_string@DU?$char_traits@D@std@@V?$allocator@D@2@@std@@PBVOptions@4@@Z 1000af80 f i main.obj
 0001:0000a0c0       ?readShader@ManageMemoryCallback@@UAE?AVReadResult@ReaderWriter@osgDB@@ABV?$basic_string@DU?$char_traits@D@std@@V?$allocator@D@2@@std@@PBVOptions@4@@Z 1000b0c0 f i main.obj
 0001:0000a170       ?readImage@ConditionPathsCallback@@UAE?AVReadResult@ReaderWriter@osgDB@@ABV?$basic_string@DU?$char_traits@D@std@@V?$allocator@D@2@@std@@PBVOptions@4@@Z 1000b170 f i main.obj
 0001:0000a390       ??_GImage@osg@@MAEPAXI@Z   1000b390 f i main.obj
 0001:0000a390       ??_EImage@osg@@MAEPAXI@Z   1000b390 f i main.obj
 0001:0000a3c0       ?GetTextureNameMapping@OptionsReader@@QAE?AV?$basic_string@DU?$char_traits@D@std@@V?$allocator@D@2@@std@@V23@@Z 1000b3c0 f i main.obj
 0001:0000a500       ?readImage@ImageCallback@@UAE?AVReadResult@ReaderWriter@osgDB@@ABV?$basic_string@DU?$char_traits@D@std@@V?$allocator@D@2@@std@@PBVOptions@4@@Z 1000b500 f i main.obj
 0001:0000a640       ?readImage@ManageMemoryCallback@@UAE?AVReadResult@ReaderWriter@osgDB@@ABV?$basic_string@DU?$char_traits@D@std@@V?$allocator@D@2@@std@@PBVOptions@4@@Z 1000b640 f i main.obj
 0001:0000a6f0       ?setFilepath@ConditionPathsCallback@@QAEXV?$basic_string@DU?$char_traits@D@std@@V?$allocator@D@2@@std@@@Z 1000b6f0 f i main.obj
 0001:0000a760       ??_GConditionPathsCallback@@UAEPAXI@Z 1000b760 f i main.obj
 0001:0000a760       ??_EConditionPathsCallback@@UAEPAXI@Z 1000b760 f i main.obj
 0001:0000a7a0       ??0ImageCallback@@QAE@XZ   1000b7a0 f i main.obj
 0001:0000a850       ??1ManageMemoryCallback@@UAE@XZ 1000b850 f i main.obj
 0001:0000aa10       ??_EManageMemoryCallback@@UAEPAXI@Z 1000ba10 f i main.obj
 0001:0000aa10       ??_GManageMemoryCallback@@UAEPAXI@Z 1000ba10 f i main.obj
 0001:0000aa50       ??_DManageMemoryCallback@@QAEXXZ 1000ba50 f i main.obj
 0001:0000aa80       ??1ImageCallback@@UAE@XZ   1000ba80 f i main.obj
 0001:0000aae0       ??1OptionsReader@@QAE@XZ   1000bae0 f i main.obj
 0001:0000ab70       ??4OptionsReader@@QAEAAV0@ABV0@@Z 1000bb70 f i main.obj
 0001:0000ac80       ??4?$map@V?$basic_string@DU?$char_traits@D@std@@V?$allocator@D@2@@std@@V12@U?$less@V?$basic_string@DU?$char_traits@D@std@@V?$allocator@D@2@@std@@@2@V?$allocator@U?$pair@$$CBV?$basic_string@DU?$char_traits@D@std@@V?$allocator@D@2@@std@@V12@@std@@@2@@std@@QAEAAV01@ABV01@@Z 1000bc80 f i main.obj
 0001:0000aca0       ??_DConditionPathsCallback@@QAEXXZ 1000bca0 f i main.obj
 0001:0000acd0       ??_EImageCallback@@UAEPAXI@Z 1000bcd0 f i main.obj
 0001:0000acd0       ??_GImageCallback@@UAEPAXI@Z 1000bcd0 f i main.obj
 0001:0000ad10       ??0ManageMemoryCallback@@QAE@XZ 1000bd10 f i main.obj
 0001:0000adc0       ??1ConditionPathsCallback@@UAE@XZ 1000bdc0 f i main.obj
 0001:0000ae30       ??_DImageCallback@@QAEXXZ  1000be30 f i main.obj
 0001:0000ae60       ?GetExtension@ZipEntry@@QAE?AV?$basic_string@DU?$char_traits@D@std@@V?$allocator@D@2@@std@@XZ 1000be60 f i main.obj
 0001:0000aea0       ?GetFilename@ZipEntry@@QAE?AV?$basic_string@DU?$char_traits@D@std@@V?$allocator@D@2@@std@@XZ 1000bea0 f i main.obj
 0001:0000aee0       ?GetData@ZipEntry@@QAEPAXAAH@Z 1000bee0 f i main.obj
 0001:0000af50       ?status@WriteResult@ReaderWriter@osgDB@@QBE?AW4WriteStatus@123@XZ 1000bf50 f i main.obj
 0001:0000af60       ?GetNewTextureFormat@OptionsReader@@QAE?AV?$basic_string@DU?$char_traits@D@std@@V?$allocator@D@2@@std@@XZ 1000bf60 f i main.obj
 0001:0000afa0       ?GetNewTextureSize@OptionsReader@@QAEHXZ 1000bfa0 f i main.obj
 0001:0000afc0       ??_GTraits@GraphicsContext@osg@@UAEPAXI@Z 1000bfc0 f i main.obj
 0001:0000afc0       ??_ETraits@GraphicsContext@osg@@UAEPAXI@Z 1000bfc0 f i main.obj
 0001:0000aff0       ??0OptionsReader@@QAE@ABV0@@Z 1000bff0 f i main.obj
 0001:0000b140       ??0?$map@V?$basic_string@DU?$char_traits@D@std@@V?$allocator@D@2@@std@@V12@U?$less@V?$basic_string@DU?$char_traits@D@std@@V?$allocator@D@2@@std@@@2@V?$allocator@U?$pair@$$CBV?$basic_string@DU?$char_traits@D@std@@V?$allocator@D@2@@std@@V12@@std@@@2@@std@@QAE@ABV01@@Z 1000c140 f i main.obj
 0001:0000b160       ??0ZipEntry@@QAE@PAUHZIP__@@H@Z 1000c160 f i main.obj
 0001:0000b2d0       ?GetFileNameOnly@ZipEntry@@QAE?AV?$basic_string@DU?$char_traits@D@std@@V?$allocator@D@2@@std@@XZ 1000c2d0 f i main.obj
 0001:0000b310       ?IsImageFile@ZipEntry@@QAE_NXZ 1000c310 f i main.obj
 0001:0000b5f0       ?AddTextureNameMapping@OptionsReader@@QAEXV?$basic_string@DU?$char_traits@D@std@@V?$allocator@D@2@@std@@0@Z 1000c5f0 f i main.obj
 0001:0000b6f0       ??0OptionsReader@@QAE@PBD@Z 1000c6f0 f i main.obj
 0001:0000be00       ?EnableMetadataGathering@OptionsReader@@QAEXXZ 1000ce00 f i main.obj
 0001:0000be20       ?GetResizeTextures@OptionsReader@@QAE_NXZ 1000ce20 f i main.obj
 0001:0000be40       ?GetConvertTextures@OptionsReader@@QAE_NXZ 1000ce40 f i main.obj
 0001:0000be70       ?CheckReferencedTextureName@OptionsReader@@QAE_NV?$basic_string@DU?$char_traits@D@std@@V?$allocator@D@2@@std@@@Z 1000ce70 f i main.obj
 0001:0000c070       ??1?$queue@V?$basic_string@DU?$char_traits@D@std@@V?$allocator@D@2@@std@@V?$deque@V?$basic_string@DU?$char_traits@D@std@@V?$allocator@D@2@@std@@V?$allocator@V?$basic_string@DU?$char_traits@D@std@@V?$allocator@D@2@@std@@@2@@2@@std@@QAE@XZ 1000d070 f i main.obj
 0001:0000c090       ??0ZipEntry@@QAE@PADHV?$basic_string@DU?$char_traits@D@std@@V?$allocator@D@2@@std@@@Z 1000d090 f i main.obj
 0001:0000c120       ?Is3DFile@ZipEntry@@QAE_NXZ 1000d120 f i main.obj
 0001:0000c480       ??_GZipEntry@@QAEPAXI@Z    1000d480 f i main.obj
 0001:0000c4b0       ??1ZipEntry@@QAE@XZ        1000d4b0 f i main.obj
 0001:0000c4f0       ??0ConditionPathsCallback@@QAE@XZ 1000d4f0 f i main.obj
 0001:0000c5c0       ?readNodeFile@osgDB@@YAPAVNode@osg@@ABV?$basic_string@DU?$char_traits@D@std@@V?$allocator@D@2@@std@@@Z 1000d5c0 f i main.obj
 0001:0000c5f0       ?writeNodeFile@osgDB@@YA_NABVNode@osg@@ABV?$basic_string@DU?$char_traits@D@std@@V?$allocator@D@2@@std@@@Z 1000d5f0 f i main.obj
 0001:0000c620       ??0FindTextureReferencePairs@@QAE@XZ 1000d620 f i main.obj
 0001:0000c6e0       ?apply@FindTextureReferencePairs@@UAEXAAVGeode@osg@@@Z 1000d6e0 f i main.obj
 0001:0000c8e0       ?GetTextureReference@FindTextureReferencePairs@@QAE?AU?$pair@V?$basic_string@DU?$char_traits@D@std@@V?$allocator@D@2@@std@@V12@@std@@PAVStateSet@osg@@@Z 1000d8e0 f i main.obj
 0001:0000ca30       ?GetTextureReference@FindTextureReferencePairs@@QAE?AU?$pair@V?$basic_string@DU?$char_traits@D@std@@V?$allocator@D@2@@std@@V12@@std@@PAVNode@osg@@@Z 1000da30 f i main.obj
 0001:0000cce0       ?apply@FindTextureReferencePairs@@UAEXAAVNode@osg@@@Z 1000dce0 f i main.obj
 0001:0000cd00       ??_EFindTextureReferencePairs@@UAEPAXI@Z 1000dd00 f i main.obj
 0001:0000cd00       ??_GFindTextureReferencePairs@@UAEPAXI@Z 1000dd00 f i main.obj
 0001:0000cd40       ??1?$pair@V?$basic_string@DU?$char_traits@D@std@@V?$allocator@D@2@@std@@V12@@std@@QAE@XZ 1000dd40 f i main.obj
 0001:0000cda0       ??4?$pair@V?$basic_string@DU?$char_traits@D@std@@V?$allocator@D@2@@std@@V12@@std@@QAEAAU01@ABU01@@Z 1000dda0 f i main.obj
 0001:0000cdd0       ??0?$pair@V?$basic_string@DU?$char_traits@D@std@@V?$allocator@D@2@@std@@V12@@std@@QAE@ABU01@@Z 1000ddd0 f i main.obj
 0001:0000ce40       ??_DFindTextureReferencePairs@@QAEXXZ 1000de40 f i main.obj
 0001:0000ce70       ??1FindTextureReferencePairs@@UAE@XZ 1000de70 f i main.obj
 0001:0000ced0       ??0?$vector@IV?$allocator@I@std@@@std@@QAE@XZ 1000ded0 f i main.obj
 0001:0000cf40       ??1?$vector@IV?$allocator@I@std@@@std@@QAE@XZ 1000df40 f i main.obj
 0001:0000cfa0       ?size@?$vector@IV?$allocator@I@std@@@std@@QBEIXZ 1000dfa0 f i main.obj
 0001:0000cfc0       ?empty@?$vector@IV?$allocator@I@std@@@std@@QBE_NXZ 1000dfc0 f i main.obj
 0001:0000cfe0       ?front@?$vector@IV?$allocator@I@std@@@std@@QAEAAIXZ 1000dfe0 f i main.obj
 0001:0000d000       ?push_back@?$vector@IV?$allocator@I@std@@@std@@QAEXABI@Z 1000e000 f i main.obj
 0001:0000d080       ?clear@?$vector@IV?$allocator@I@std@@@std@@QAEXXZ 1000e080 f i main.obj
 0001:0000d0e0       ?size@?$vector@V?$map@U?$pair@W4Type@StateAttribute@osg@@I@std@@U?$pair@V?$ref_ptr@VStateAttribute@osg@@@osg@@I@2@U?$less@U?$pair@W4Type@StateAttribute@osg@@I@std@@@2@V?$allocator@U?$pair@$$CBU?$pair@W4Type@StateAttribute@osg@@I@std@@U?$pair@V?$ref_ptr@VStateAttribute@osg@@@osg@@I@2@@std@@@2@@std@@V?$allocator@V?$map@U?$pair@W4Type@StateAttribute@osg@@I@std@@U?$pair@V?$ref_ptr@VStateAttribute@osg@@@osg@@I@2@U?$less@U?$pair@W4Type@StateAttribute@osg@@I@std@@@2@V?$allocator@U?$pair@$$CBU?$pair@W4Type@StateAttribute@osg@@I@std@@U?$pair@V?$ref_ptr@VStateAttribute@osg@@@osg@@I@2@@std@@@2@@std@@@2@@std@@QBEIXZ 1000e0e0 f i main.obj
 0001:0000d100       ??0?$map@V?$basic_string@DU?$char_traits@D@std@@V?$allocator@D@2@@std@@V12@U?$less@V?$basic_string@DU?$char_traits@D@std@@V?$allocator@D@2@@std@@@2@V?$allocator@U?$pair@$$CBV?$basic_string@DU?$char_traits@D@std@@V?$allocator@D@2@@std@@V12@@std@@@2@@std@@QAE@XZ 1000e100 f i main.obj
 0001:0000d130       ??A?$map@V?$basic_string@DU?$char_traits@D@std@@V?$allocator@D@2@@std@@V12@U?$less@V?$basic_string@DU?$char_traits@D@std@@V?$allocator@D@2@@std@@@2@V?$allocator@U?$pair@$$CBV?$basic_string@DU?$char_traits@D@std@@V?$allocator@D@2@@std@@V12@@std@@@2@@std@@QAEAAV?$basic_string@DU?$char_traits@D@std@@V?$allocator@D@2@@1@ABV21@@Z 1000e130 f i main.obj
 0001:0000d280       ??0?$_Tree@V?$_Tmap_traits@V?$basic_string@DU?$char_traits@D@std@@V?$allocator@D@2@@std@@V12@U?$less@V?$basic_string@DU?$char_traits@D@std@@V?$allocator@D@2@@std@@@2@V?$allocator@U?$pair@$$CBV?$basic_string@DU?$char_traits@D@std@@V?$allocator@D@2@@std@@V12@@std@@@2@$0A@@std@@@std@@QAE@ABV01@@Z 1000e280 f i main.obj
 0001:0000d340       ??1?$_Tree@V?$_Tmap_traits@V?$basic_string@DU?$char_traits@D@std@@V?$allocator@D@2@@std@@V12@U?$less@V?$basic_string@DU?$char_traits@D@std@@V?$allocator@D@2@@std@@@2@V?$allocator@U?$pair@$$CBV?$basic_string@DU?$char_traits@D@std@@V?$allocator@D@2@@std@@V12@@std@@@2@$0A@@std@@@std@@QAE@XZ 1000e340 f i main.obj
 0001:0000d3a0       ??4?$_Tree@V?$_Tmap_traits@V?$basic_string@DU?$char_traits@D@std@@V?$allocator@D@2@@std@@V12@U?$less@V?$basic_string@DU?$char_traits@D@std@@V?$allocator@D@2@@std@@@2@V?$allocator@U?$pair@$$CBV?$basic_string@DU?$char_traits@D@std@@V?$allocator@D@2@@std@@V12@@std@@@2@$0A@@std@@@std@@QAEAAV01@ABV01@@Z 1000e3a0 f i main.obj
 0001:0000d410       ?end@?$_Tree@V?$_Tmap_traits@V?$basic_string@DU?$char_traits@D@std@@V?$allocator@D@2@@std@@V12@U?$less@V?$basic_string@DU?$char_traits@D@std@@V?$allocator@D@2@@std@@@2@V?$allocator@U?$pair@$$CBV?$basic_string@DU?$char_traits@D@std@@V?$allocator@D@2@@std@@V12@@std@@@2@$0A@@std@@@std@@QAE?AViterator@12@XZ 1000e410 f i main.obj
 0001:0000d440       ?find@?$_Tree@V?$_Tmap_traits@V?$basic_string@DU?$char_traits@D@std@@V?$allocator@D@2@@std@@V12@U?$less@V?$basic_string@DU?$char_traits@D@std@@V?$allocator@D@2@@std@@@2@V?$allocator@U?$pair@$$CBV?$basic_string@DU?$char_traits@D@std@@V?$allocator@D@2@@std@@V12@@std@@@2@$0A@@std@@@std@@QAE?AViterator@12@ABV?$basic_string@DU?$char_traits@D@std@@V?$allocator@D@2@@2@@Z 1000e440 f i main.obj
 0001:0000d4e0       ??0?$vector@HV?$allocator@H@std@@@std@@QAE@XZ 1000e4e0 f i main.obj
 0001:0000d550       ??0?$vector@HV?$allocator@H@std@@@std@@QAE@ABV01@@Z 1000e550 f i main.obj
 0001:0000d650       ??1?$vector@HV?$allocator@H@std@@@std@@QAE@XZ 1000e650 f i main.obj
 0001:0000d6b0       ?push_back@?$vector@HV?$allocator@H@std@@@std@@QAEXABH@Z 1000e6b0 f i main.obj
 0001:0000d730       ??0?$ref_ptr@VNode@osg@@@osg@@QAE@PAVNode@1@@Z 1000e730 f i main.obj
 0001:0000d760       ??1?$ref_ptr@VNode@osg@@@osg@@QAE@XZ 1000e760 f i main.obj
 0001:0000d790       ??7?$ref_ptr@VNode@osg@@@osg@@QBE_NXZ 1000e790 f i main.obj
 0001:0000d7b0       ??0?$ref_ptr@VGeometry@osg@@@osg@@QAE@PAVGeometry@1@@Z 1000e7b0 f i main.obj
 0001:0000d7e0       ??1?$ref_ptr@VGeometry@osg@@@osg@@QAE@XZ 1000e7e0 f i main.obj
 0001:0000d810       ??B?$ref_ptr@VGeometry@osg@@@osg@@QBEPAVGeometry@1@XZ 1000e810 f i main.obj
 0001:0000d820       ??C?$ref_ptr@VGeometry@osg@@@osg@@QBEPAVGeometry@1@XZ 1000e820 f i main.obj
 0001:0000d830       ?valid@?$ref_ptr@VGeometry@osg@@@osg@@QBE_NXZ 1000e830 f i main.obj
 0001:0000d850       ??1?$deque@V?$basic_string@DU?$char_traits@D@std@@V?$allocator@D@2@@std@@V?$allocator@V?$basic_string@DU?$char_traits@D@std@@V?$allocator@D@2@@std@@@2@@std@@QAE@XZ 1000e850 f i main.obj
 0001:0000d8b0       ??8const_iterator@?$_Tree@V?$_Tmap_traits@V?$basic_string@DU?$char_traits@D@std@@V?$allocator@D@2@@std@@V12@U?$less@V?$basic_string@DU?$char_traits@D@std@@V?$allocator@D@2@@std@@@2@V?$allocator@U?$pair@$$CBV?$basic_string@DU?$char_traits@D@std@@V?$allocator@D@2@@std@@V12@@std@@@2@$0A@@std@@@std@@QBE_NABV012@@Z 1000e8b0 f i main.obj
 0001:0000d900       ?_Same_container@_Iterator_base_aux@std@@QBE_NABV12@@Z 1000e900 f i main.obj
 0001:0000d920       ?_Has_container@_Iterator_base_aux@std@@QBE_NXZ 1000e920 f i main.obj
 0001:0000d940       ??9const_iterator@?$_Tree@V?$_Tmap_traits@V?$basic_string@DU?$char_traits@D@std@@V?$allocator@D@2@@std@@V12@U?$less@V?$basic_string@DU?$char_traits@D@std@@V?$allocator@D@2@@std@@@2@V?$allocator@U?$pair@$$CBV?$basic_string@DU?$char_traits@D@std@@V?$allocator@D@2@@std@@V12@@std@@@2@$0A@@std@@@std@@QBE_NABV012@@Z 1000e940 f i main.obj
 0001:0000d970       ??0?$ref_ptr@VOptions@osgDB@@@osg@@QAE@PAVOptions@osgDB@@@Z 1000e970 f i main.obj
 0001:0000d9a0       ??1?$ref_ptr@VOptions@osgDB@@@osg@@QAE@XZ 1000e9a0 f i main.obj
 0001:0000d9d0       ??B?$ref_ptr@VOptions@osgDB@@@osg@@QBEPAVOptions@osgDB@@XZ 1000e9d0 f i main.obj
 0001:0000d9e0       ??C?$ref_ptr@VOptions@osgDB@@@osg@@QBEPAVOptions@osgDB@@XZ 1000e9e0 f i main.obj
 0001:0000d9f0       ??0?$ref_ptr@VGroup@osg@@@osg@@QAE@PAVGroup@1@@Z 1000e9f0 f i main.obj
 0001:0000da20       ??1?$ref_ptr@VGroup@osg@@@osg@@QAE@XZ 1000ea20 f i main.obj
 0001:0000da50       ??B?$ref_ptr@VGroup@osg@@@osg@@QBEPAVGroup@1@XZ 1000ea50 f i main.obj
 0001:0000da60       ??C?$ref_ptr@VGroup@osg@@@osg@@QBEPAVGroup@1@XZ 1000ea60 f i main.obj
 0001:0000da70       ?get@?$ref_ptr@VGroup@osg@@@osg@@QBEPAVGroup@2@XZ 1000ea70 f i main.obj
 0001:0000da80       ??0?$list@PAVGeometry@osg@@V?$allocator@PAVGeometry@osg@@@std@@@std@@QAE@XZ 1000ea80 f i main.obj
 0001:0000db00       ??1?$list@PAVGeometry@osg@@V?$allocator@PAVGeometry@osg@@@std@@@std@@QAE@XZ 1000eb00 f i main.obj
 0001:0000db60       ?begin@?$list@PAVGeometry@osg@@V?$allocator@PAVGeometry@osg@@@std@@@std@@QAE?AV?$_Iterator@$00@12@XZ 1000eb60 f i main.obj
 0001:0000db90       ?end@?$list@PAVGeometry@osg@@V?$allocator@PAVGeometry@osg@@@std@@@std@@QAE?AV?$_Iterator@$00@12@XZ 1000eb90 f i main.obj
 0001:0000dbc0       ?push_back@?$list@PAVGeometry@osg@@V?$allocator@PAVGeometry@osg@@@std@@@std@@QAEXABQAVGeometry@osg@@@Z 1000ebc0 f i main.obj
 0001:0000dc00       ??0?$_Iterator@$00@?$list@PAVGeometry@osg@@V?$allocator@PAVGeometry@osg@@@std@@@std@@QAE@XZ 1000ec00 f i main.obj
 0001:0000dc20       ??D?$_Iterator@$00@?$list@PAVGeometry@osg@@V?$allocator@PAVGeometry@osg@@@std@@@std@@QBEAAPAVGeometry@osg@@XZ 1000ec20 f i main.obj
 0001:0000dc40       ??E?$_Iterator@$00@?$list@PAVGeometry@osg@@V?$allocator@PAVGeometry@osg@@@std@@@std@@QAE?AV012@H@Z 1000ec40 f i main.obj
 0001:0000dc80       ??9?$_Const_iterator@$00@?$list@PAVGeometry@osg@@V?$allocator@PAVGeometry@osg@@@std@@@std@@QBE_NABV012@@Z 1000ec80 f i main.obj
 0001:0000dcb0       ??0?$list@VReadResult@ReaderWriter@osgDB@@V?$allocator@VReadResult@ReaderWriter@osgDB@@@std@@@std@@QAE@XZ 1000ecb0 f i main.obj
 0001:0000dd30       ??1?$list@VReadResult@ReaderWriter@osgDB@@V?$allocator@VReadResult@ReaderWriter@osgDB@@@std@@@std@@QAE@XZ 1000ed30 f i main.obj
 0001:0000dd90       ?begin@?$list@VReadResult@ReaderWriter@osgDB@@V?$allocator@VReadResult@ReaderWriter@osgDB@@@std@@@std@@QAE?AV?$_Iterator@$00@12@XZ 1000ed90 f i main.obj
 0001:0000ddc0       ?end@?$list@VReadResult@ReaderWriter@osgDB@@V?$allocator@VReadResult@ReaderWriter@osgDB@@@std@@@std@@QAE?AV?$_Iterator@$00@12@XZ 1000edc0 f i main.obj
 0001:0000ddf0       ?push_back@?$list@VReadResult@ReaderWriter@osgDB@@V?$allocator@VReadResult@ReaderWriter@osgDB@@@std@@@std@@QAEXABVReadResult@ReaderWriter@osgDB@@@Z 1000edf0 f i main.obj
 0001:0000de30       ??0?$_Iterator@$00@?$list@VReadResult@ReaderWriter@osgDB@@V?$allocator@VReadResult@ReaderWriter@osgDB@@@std@@@std@@QAE@XZ 1000ee30 f i main.obj
 0001:0000de50       ??C?$_Iterator@$00@?$list@VReadResult@ReaderWriter@osgDB@@V?$allocator@VReadResult@ReaderWriter@osgDB@@@std@@@std@@QBEPAVReadResult@ReaderWriter@osgDB@@XZ 1000ee50 f i main.obj
 0001:0000de70       ??E?$_Iterator@$00@?$list@VReadResult@ReaderWriter@osgDB@@V?$allocator@VReadResult@ReaderWriter@osgDB@@@std@@@std@@QAE?AV012@H@Z 1000ee70 f i main.obj
 0001:0000deb0       ??9?$_Const_iterator@$00@?$list@VReadResult@ReaderWriter@osgDB@@V?$allocator@VReadResult@ReaderWriter@osgDB@@@std@@@std@@QBE_NABV012@@Z 1000eeb0 f i main.obj
 0001:0000dee0       ??0?$ScopedLock@VReentrantMutex@OpenThreads@@@OpenThreads@@QAE@AAVReentrantMutex@1@@Z 1000eee0 f i main.obj
 0001:0000df10       ??1?$ScopedLock@VReentrantMutex@OpenThreads@@@OpenThreads@@QAE@XZ 1000ef10 f i main.obj
 0001:0000df30       ??B?$fpos@H@std@@QBEJXZ    1000ef30 f i main.obj
 0001:0000df50       ??0?$queue@V?$basic_string@DU?$char_traits@D@std@@V?$allocator@D@2@@std@@V?$deque@V?$basic_string@DU?$char_traits@D@std@@V?$allocator@D@2@@std@@V?$allocator@V?$basic_string@DU?$char_traits@D@std@@V?$allocator@D@2@@std@@@2@@2@@std@@QAE@XZ 1000ef50 f i main.obj
 0001:0000df70       ??0?$deque@V?$basic_string@DU?$char_traits@D@std@@V?$allocator@D@2@@std@@V?$allocator@V?$basic_string@DU?$char_traits@D@std@@V?$allocator@D@2@@std@@@2@@std@@QAE@XZ 1000ef70 f i main.obj
 0001:0000dfc0       ?size@?$queue@V?$basic_string@DU?$char_traits@D@std@@V?$allocator@D@2@@std@@V?$deque@V?$basic_string@DU?$char_traits@D@std@@V?$allocator@D@2@@std@@V?$allocator@V?$basic_string@DU?$char_traits@D@std@@V?$allocator@D@2@@std@@@2@@2@@std@@QBEIXZ 1000efc0 f i main.obj
 0001:0000dfe0       ?front@?$queue@V?$basic_string@DU?$char_traits@D@std@@V?$allocator@D@2@@std@@V?$deque@V?$basic_string@DU?$char_traits@D@std@@V?$allocator@D@2@@std@@V?$allocator@V?$basic_string@DU?$char_traits@D@std@@V?$allocator@D@2@@std@@@2@@2@@std@@QAEAAV?$basic_string@DU?$char_traits@D@std@@V?$allocator@D@2@@2@XZ 1000efe0 f i main.obj
 0001:0000e000       ?push@?$queue@V?$basic_string@DU?$char_traits@D@std@@V?$allocator@D@2@@std@@V?$deque@V?$basic_string@DU?$char_traits@D@std@@V?$allocator@D@2@@std@@V?$allocator@V?$basic_string@DU?$char_traits@D@std@@V?$allocator@D@2@@std@@@2@@2@@std@@QAEXABV?$basic_string@DU?$char_traits@D@std@@V?$allocator@D@2@@2@@Z 1000f000 f i main.obj
 0001:0000e020       ?push_back@?$deque@V?$basic_string@DU?$char_traits@D@std@@V?$allocator@D@2@@std@@V?$allocator@V?$basic_string@DU?$char_traits@D@std@@V?$allocator@D@2@@std@@@2@@std@@QAEXABV?$basic_string@DU?$char_traits@D@std@@V?$allocator@D@2@@2@@Z 1000f020 f i main.obj
 0001:0000e100       ?pop@?$queue@V?$basic_string@DU?$char_traits@D@std@@V?$allocator@D@2@@std@@V?$deque@V?$basic_string@DU?$char_traits@D@std@@V?$allocator@D@2@@std@@V?$allocator@V?$basic_string@DU?$char_traits@D@std@@V?$allocator@D@2@@std@@@2@@2@@std@@QAEXXZ 1000f100 f i main.obj
 0001:0000e120       ??0?$list@V?$basic_string@DU?$char_traits@D@std@@V?$allocator@D@2@@std@@V?$allocator@V?$basic_string@DU?$char_traits@D@std@@V?$allocator@D@2@@std@@@2@@std@@QAE@XZ 1000f120 f i main.obj
 0001:0000e1a0       ??1?$list@V?$basic_string@DU?$char_traits@D@std@@V?$allocator@D@2@@std@@V?$allocator@V?$basic_string@DU?$char_traits@D@std@@V?$allocator@D@2@@std@@@2@@std@@QAE@XZ 1000f1a0 f i main.obj
 0001:0000e200       ?begin@?$list@V?$basic_string@DU?$char_traits@D@std@@V?$allocator@D@2@@std@@V?$allocator@V?$basic_string@DU?$char_traits@D@std@@V?$allocator@D@2@@std@@@2@@std@@QAE?AV?$_Iterator@$00@12@XZ 1000f200 f i main.obj
 0001:0000e230       ?end@?$list@V?$basic_string@DU?$char_traits@D@std@@V?$allocator@D@2@@std@@V?$allocator@V?$basic_string@DU?$char_traits@D@std@@V?$allocator@D@2@@std@@@2@@std@@QAE?AV?$_Iterator@$00@12@XZ 1000f230 f i main.obj
 0001:0000e260       ?push_back@?$list@V?$basic_string@DU?$char_traits@D@std@@V?$allocator@D@2@@std@@V?$allocator@V?$basic_string@DU?$char_traits@D@std@@V?$allocator@D@2@@std@@@2@@std@@QAEXABV?$basic_string@DU?$char_traits@D@std@@V?$allocator@D@2@@2@@Z 1000f260 f i main.obj
 0001:0000e2a0       ??9?$_Const_iterator@$00@?$list@V?$basic_string@DU?$char_traits@D@std@@V?$allocator@D@2@@std@@V?$allocator@V?$basic_string@DU?$char_traits@D@std@@V?$allocator@D@2@@std@@@2@@std@@QBE_NABV012@@Z 1000f2a0 f i main.obj
 0001:0000e2d0       ??0?$list@PAVZipEntry@@V?$allocator@PAVZipEntry@@@std@@@std@@QAE@XZ 1000f2d0 f i main.obj
 0001:0000e350       ??1?$list@PAVZipEntry@@V?$allocator@PAVZipEntry@@@std@@@std@@QAE@XZ 1000f350 f i main.obj
 0001:0000e3b0       ?begin@?$list@PAVZipEntry@@V?$allocator@PAVZipEntry@@@std@@@std@@QAE?AV?$_Iterator@$00@12@XZ 1000f3b0 f i main.obj
 0001:0000e3e0       ?end@?$list@PAVZipEntry@@V?$allocator@PAVZipEntry@@@std@@@std@@QAE?AV?$_Iterator@$00@12@XZ 1000f3e0 f i main.obj
 0001:0000e410       ?push_back@?$list@PAVZipEntry@@V?$allocator@PAVZipEntry@@@std@@@std@@QAEXABQAVZipEntry@@@Z 1000f410 f i main.obj
 0001:0000e450       ??0?$_Iterator@$00@?$list@PAVZipEntry@@V?$allocator@PAVZipEntry@@@std@@@std@@QAE@XZ 1000f450 f i main.obj
 0001:0000e470       ??D?$_Iterator@$00@?$list@PAVZipEntry@@V?$allocator@PAVZipEntry@@@std@@@std@@QBEAAPAVZipEntry@@XZ 1000f470 f i main.obj
 0001:0000e490       ??E?$_Iterator@$00@?$list@PAVZipEntry@@V?$allocator@PAVZipEntry@@@std@@@std@@QAE?AV012@H@Z 1000f490 f i main.obj
 0001:0000e4d0       ??9?$_Const_iterator@$00@?$list@PAVZipEntry@@V?$allocator@PAVZipEntry@@@std@@@std@@QBE_NABV012@@Z 1000f4d0 f i main.obj
 0001:0000e500       ??0?$ref_ptr@VImageCallback@@@osg@@QAE@PAVImageCallback@@@Z 1000f500 f i main.obj
 0001:0000e540       ??1?$ref_ptr@VImageCallback@@@osg@@QAE@XZ 1000f540 f i main.obj
 0001:0000e580       ??B?$ref_ptr@VImageCallback@@@osg@@QBEPAVImageCallback@@XZ 1000f580 f i main.obj
 0001:0000e590       ??C?$ref_ptr@VImageCallback@@@osg@@QBEPAVImageCallback@@XZ 1000f590 f i main.obj
 0001:0000e5a0       ??0?$list@U?$pair@V?$basic_string@DU?$char_traits@D@std@@V?$allocator@D@2@@std@@V12@@std@@V?$allocator@U?$pair@V?$basic_string@DU?$char_traits@D@std@@V?$allocator@D@2@@std@@V12@@std@@@2@@std@@QAE@XZ 1000f5a0 f i main.obj
 0001:0000e620       ??1?$list@U?$pair@V?$basic_string@DU?$char_traits@D@std@@V?$allocator@D@2@@std@@V12@@std@@V?$allocator@U?$pair@V?$basic_string@DU?$char_traits@D@std@@V?$allocator@D@2@@std@@V12@@std@@@2@@std@@QAE@XZ 1000f620 f i main.obj
 0001:0000e680       ?begin@?$list@U?$pair@V?$basic_string@DU?$char_traits@D@std@@V?$allocator@D@2@@std@@V12@@std@@V?$allocator@U?$pair@V?$basic_string@DU?$char_traits@D@std@@V?$allocator@D@2@@std@@V12@@std@@@2@@std@@QAE?AV?$_Iterator@$00@12@XZ 1000f680 f i main.obj
 0001:0000e6b0       ?end@?$list@U?$pair@V?$basic_string@DU?$char_traits@D@std@@V?$allocator@D@2@@std@@V12@@std@@V?$allocator@U?$pair@V?$basic_string@DU?$char_traits@D@std@@V?$allocator@D@2@@std@@V12@@std@@@2@@std@@QAE?AV?$_Iterator@$00@12@XZ 1000f6b0 f i main.obj
 0001:0000e6e0       ?push_back@?$list@U?$pair@V?$basic_string@DU?$char_traits@D@std@@V?$allocator@D@2@@std@@V12@@std@@V?$allocator@U?$pair@V?$basic_string@DU?$char_traits@D@std@@V?$allocator@D@2@@std@@V12@@std@@@2@@std@@QAEXABU?$pair@V?$basic_string@DU?$char_traits@D@std@@V?$allocator@D@2@@std@@V12@@2@@Z 1000f6e0 f i main.obj
 0001:0000e720       ?unique@?$list@U?$pair@V?$basic_string@DU?$char_traits@D@std@@V?$allocator@D@2@@std@@V12@@std@@V?$allocator@U?$pair@V?$basic_string@DU?$char_traits@D@std@@V?$allocator@D@2@@std@@V12@@std@@@2@@std@@QAEXXZ 1000f720 f i main.obj
 0001:0000e7f0       ??0?$pair@V?$basic_string@DU?$char_traits@D@std@@V?$allocator@D@2@@std@@V12@@std@@QAE@ABV?$basic_string@DU?$char_traits@D@std@@V?$allocator@D@2@@1@0@Z 1000f7f0 f i main.obj
 0001:0000e860       ??0?$ref_ptr@VConditionPathsCallback@@@osg@@QAE@PAVConditionPathsCallback@@@Z 1000f860 f i main.obj
 0001:0000e8a0       ??1?$ref_ptr@VConditionPathsCallback@@@osg@@QAE@XZ 1000f8a0 f i main.obj
 0001:0000e8e0       ??B?$ref_ptr@VConditionPathsCallback@@@osg@@QBEPAVConditionPathsCallback@@XZ 1000f8e0 f i main.obj
 0001:0000e8f0       ??0?$_Iterator@$00@?$list@U?$pair@V?$basic_string@DU?$char_traits@D@std@@V?$allocator@D@2@@std@@V12@@std@@V?$allocator@U?$pair@V?$basic_string@DU?$char_traits@D@std@@V?$allocator@D@2@@std@@V12@@std@@@2@@std@@QAE@XZ 1000f8f0 f i main.obj
 0001:0000e910       ??C?$_Iterator@$00@?$list@U?$pair@V?$basic_string@DU?$char_traits@D@std@@V?$allocator@D@2@@std@@V12@@std@@V?$allocator@U?$pair@V?$basic_string@DU?$char_traits@D@std@@V?$allocator@D@2@@std@@V12@@std@@@2@@std@@QBEPAU?$pair@V?$basic_string@DU?$char_traits@D@std@@V?$allocator@D@2@@std@@V12@@2@XZ 1000f910 f i main.obj
 0001:0000e930       ??E?$_Iterator@$00@?$list@U?$pair@V?$basic_string@DU?$char_traits@D@std@@V?$allocator@D@2@@std@@V12@@std@@V?$allocator@U?$pair@V?$basic_string@DU?$char_traits@D@std@@V?$allocator@D@2@@std@@V12@@std@@@2@@std@@QAE?AV012@H@Z 1000f930 f i main.obj
 0001:0000e970       ??9?$_Const_iterator@$00@?$list@U?$pair@V?$basic_string@DU?$char_traits@D@std@@V?$allocator@D@2@@std@@V12@@std@@V?$allocator@U?$pair@V?$basic_string@DU?$char_traits@D@std@@V?$allocator@D@2@@std@@V12@@std@@@2@@std@@QBE_NABV012@@Z 1000f970 f i main.obj
 0001:0000e9a0       ??1?$_Vector_val@IV?$allocator@I@std@@@std@@QAE@XZ 1000f9a0 f i main.obj
 0001:0000e9c0       ??1?$pair@$$CBV?$basic_string@DU?$char_traits@D@std@@V?$allocator@D@2@@std@@V12@@std@@QAE@XZ 1000f9c0 f i main.obj
 0001:0000ea20       ??1?$_Tree_val@V?$_Tmap_traits@V?$basic_string@DU?$char_traits@D@std@@V?$allocator@D@2@@std@@V12@U?$less@V?$basic_string@DU?$char_traits@D@std@@V?$allocator@D@2@@std@@@2@V?$allocator@U?$pair@$$CBV?$basic_string@DU?$char_traits@D@std@@V?$allocator@D@2@@std@@V12@@std@@@2@$0A@@std@@@std@@QAE@XZ 1000fa20 f i main.obj
 0001:0000ea40       ??1?$_Vector_val@HV?$allocator@H@std@@@std@@QAE@XZ 1000fa40 f i main.obj
 0001:0000ea60       ??1?$_Deque_val@V?$basic_string@DU?$char_traits@D@std@@V?$allocator@D@2@@std@@V?$allocator@V?$basic_string@DU?$char_traits@D@std@@V?$allocator@D@2@@std@@@2@@std@@QAE@XZ 1000fa60 f i main.obj
 0001:0000ea80       ??1?$_List_val@PAVGeometry@osg@@V?$allocator@PAVGeometry@osg@@@std@@@std@@QAE@XZ 1000fa80 f i main.obj
 0001:0000eaa0       ??1?$_List_val@VReadResult@ReaderWriter@osgDB@@V?$allocator@VReadResult@ReaderWriter@osgDB@@@std@@@std@@QAE@XZ 1000faa0 f i main.obj
 0001:0000eac0       ??1?$_List_val@V?$basic_string@DU?$char_traits@D@std@@V?$allocator@D@2@@std@@V?$allocator@V?$basic_string@DU?$char_traits@D@std@@V?$allocator@D@2@@std@@@2@@std@@QAE@XZ 1000fac0 f i main.obj
 0001:0000eae0       ??1?$_List_val@PAVZipEntry@@V?$allocator@PAVZipEntry@@@std@@@std@@QAE@XZ 1000fae0 f i main.obj
 0001:0000eb00       ??1?$_List_val@U?$pair@V?$basic_string@DU?$char_traits@D@std@@V?$allocator@D@2@@std@@V12@@std@@V?$allocator@U?$pair@V?$basic_string@DU?$char_traits@D@std@@V?$allocator@D@2@@std@@V12@@std@@@2@@std@@QAE@XZ 1000fb00 f i main.obj
 0001:0000eb20       ??1?$_Tree_ptr@V?$_Tmap_traits@V?$basic_string@DU?$char_traits@D@std@@V?$allocator@D@2@@std@@V12@U?$less@V?$basic_string@DU?$char_traits@D@std@@V?$allocator@D@2@@std@@@2@V?$allocator@U?$pair@$$CBV?$basic_string@DU?$char_traits@D@std@@V?$allocator@D@2@@std@@V12@@std@@@2@$0A@@std@@@std@@QAE@XZ 1000fb20 f i main.obj
 0001:0000eb40       ??1?$_Deque_map@V?$basic_string@DU?$char_traits@D@std@@V?$allocator@D@2@@std@@V?$allocator@V?$basic_string@DU?$char_traits@D@std@@V?$allocator@D@2@@std@@@2@@std@@QAE@XZ 1000fb40 f i main.obj
 0001:0000eb60       ??1?$_List_ptr@PAVGeometry@osg@@V?$allocator@PAVGeometry@osg@@@std@@@std@@QAE@XZ 1000fb60 f i main.obj
 0001:0000eb80       ??1?$_List_ptr@VReadResult@ReaderWriter@osgDB@@V?$allocator@VReadResult@ReaderWriter@osgDB@@@std@@@std@@QAE@XZ 1000fb80 f i main.obj
 0001:0000eba0       ??1?$_List_ptr@V?$basic_string@DU?$char_traits@D@std@@V?$allocator@D@2@@std@@V?$allocator@V?$basic_string@DU?$char_traits@D@std@@V?$allocator@D@2@@std@@@2@@std@@QAE@XZ 1000fba0 f i main.obj
 0001:0000ebc0       ??1?$_List_ptr@PAVZipEntry@@V?$allocator@PAVZipEntry@@@std@@@std@@QAE@XZ 1000fbc0 f i main.obj
 0001:0000ebe0       ??1?$_List_ptr@U?$pair@V?$basic_string@DU?$char_traits@D@std@@V?$allocator@D@2@@std@@V12@@std@@V?$allocator@U?$pair@V?$basic_string@DU?$char_traits@D@std@@V?$allocator@D@2@@std@@V12@@std@@@2@@std@@QAE@XZ 1000fbe0 f i main.obj
 0001:0000ec00       ??1?$_Tree_nod@V?$_Tmap_traits@V?$basic_string@DU?$char_traits@D@std@@V?$allocator@D@2@@std@@V12@U?$less@V?$basic_string@DU?$char_traits@D@std@@V?$allocator@D@2@@std@@@2@V?$allocator@U?$pair@$$CBV?$basic_string@DU?$char_traits@D@std@@V?$allocator@D@2@@std@@V12@@std@@@2@$0A@@std@@@std@@QAE@XZ 1000fc00 f i main.obj
 0001:0000ec20       ??1?$_List_nod@PAVGeometry@osg@@V?$allocator@PAVGeometry@osg@@@std@@@std@@QAE@XZ 1000fc20 f i main.obj
 0001:0000ec40       ??1?$_List_nod@VReadResult@ReaderWriter@osgDB@@V?$allocator@VReadResult@ReaderWriter@osgDB@@@std@@@std@@QAE@XZ 1000fc40 f i main.obj
 0001:0000ec60       ??1?$_List_nod@V?$basic_string@DU?$char_traits@D@std@@V?$allocator@D@2@@std@@V?$allocator@V?$basic_string@DU?$char_traits@D@std@@V?$allocator@D@2@@std@@@2@@std@@QAE@XZ 1000fc60 f i main.obj
 0001:0000ec80       ??1?$_List_nod@PAVZipEntry@@V?$allocator@PAVZipEntry@@@std@@@std@@QAE@XZ 1000fc80 f i main.obj
 0001:0000eca0       ??1?$_List_nod@U?$pair@V?$basic_string@DU?$char_traits@D@std@@V?$allocator@D@2@@std@@V12@@std@@V?$allocator@U?$pair@V?$basic_string@DU?$char_traits@D@std@@V?$allocator@D@2@@std@@V12@@std@@@2@@std@@QAE@XZ 1000fca0 f i main.obj
 0001:0000ecc0       ??1?$_Tmap_traits@V?$basic_string@DU?$char_traits@D@std@@V?$allocator@D@2@@std@@V12@U?$less@V?$basic_string@DU?$char_traits@D@std@@V?$allocator@D@2@@std@@@2@V?$allocator@U?$pair@$$CBV?$basic_string@DU?$char_traits@D@std@@V?$allocator@D@2@@std@@V12@@std@@@2@$0A@@std@@QAE@XZ 1000fcc0 f i main.obj
 0001:0000ece0       ?capacity@?$vector@IV?$allocator@I@std@@@std@@QBEIXZ 1000fce0 f i main.obj
 0001:0000ed20       ?begin@?$vector@IV?$allocator@I@std@@@std@@QAE?AV?$_Vector_iterator@IV?$allocator@I@std@@@2@XZ 1000fd20 f i main.obj
 0001:0000ed50       ?end@?$vector@IV?$allocator@I@std@@@std@@QAE?AV?$_Vector_iterator@IV?$allocator@I@std@@@2@XZ 1000fd50 f i main.obj
 0001:0000ed80       ?insert@?$vector@IV?$allocator@I@std@@@std@@QAE?AV?$_Vector_iterator@IV?$allocator@I@std@@@2@V?$_Vector_const_iterator@IV?$allocator@I@std@@@2@ABI@Z 1000fd80 f i main.obj
 0001:0000ee00       ?erase@?$vector@IV?$allocator@I@std@@@std@@QAE?AV?$_Vector_iterator@IV?$allocator@I@std@@@2@V?$_Vector_const_iterator@IV?$allocator@I@std@@@2@0@Z 1000fe00 f i main.obj
 0001:0000eea0       ??9?$_Vector_const_iterator@IV?$allocator@I@std@@@std@@QBE_NABV01@@Z 1000fea0 f i main.obj
 0001:0000eed0       ?_Buy@?$vector@IV?$allocator@I@std@@@std@@IAE_NI@Z 1000fed0 f i main.obj
 0001:0000ef50       ?_Destroy@?$vector@IV?$allocator@I@std@@@std@@IAEXPAI0@Z 1000ff50 f i main.obj
 0001:0000ef80       ?_Tidy@?$vector@IV?$allocator@I@std@@@std@@IAEXXZ 1000ff80 f i main.obj
 0001:0000eff0       ?_Ufill@?$vector@IV?$allocator@I@std@@@std@@IAEPAIPAIIABI@Z 1000fff0 f i main.obj
 0001:0000f030       ??0?$_Vector_val@IV?$allocator@I@std@@@std@@IAE@V?$allocator@I@1@@Z 10010030 f i main.obj
 0001:0000f070       ??1?$_Container_base_aux_alloc_real@V?$allocator@I@std@@@std@@IAE@XZ 10010070 f i main.obj
 0001:0000f0d0       ??1_Container_base_aux@std@@QAE@XZ 100100d0 f i main.obj
 0001:0000f0e0       ??0?$allocator@I@std@@QAE@XZ 100100e0 f i main.obj
 0001:0000f0f0       ??0?$allocator@I@std@@QAE@ABV01@@Z 100100f0 f i main.obj
 0001:0000f100       ?deallocate@?$allocator@I@std@@QAEXPAII@Z 10010100 f i main.obj
 0001:0000f120       ??R?$less@V?$basic_string@DU?$char_traits@D@std@@V?$allocator@D@2@@std@@@std@@QBE_NABV?$basic_string@DU?$char_traits@D@std@@V?$allocator@D@2@@1@0@Z 10010120 f i main.obj
 0001:0000f140       ??0?$allocator@V?$basic_string@DU?$char_traits@D@std@@V?$allocator@D@2@@std@@@std@@QAE@XZ 10010140 f i main.obj
 0001:0000f150       ?allocate@?$allocator@V?$basic_string@DU?$char_traits@D@std@@V?$allocator@D@2@@std@@@std@@QAEPAV?$basic_string@DU?$char_traits@D@std@@V?$allocator@D@2@@2@I@Z 10010150 f i main.obj
 0001:0000f170       ?construct@?$allocator@V?$basic_string@DU?$char_traits@D@std@@V?$allocator@D@2@@std@@@std@@QAEXPAV?$basic_string@DU?$char_traits@D@std@@V?$allocator@D@2@@2@ABV32@@Z 10010170 f i main.obj
 0001:0000f190       ??1?$_Container_base_aux_alloc_real@V?$allocator@V?$basic_string@DU?$char_traits@D@std@@V?$allocator@D@2@@std@@@std@@@std@@IAE@XZ 10010190 f i main.obj
 0001:0000f1f0       ?_Key@?$_Tree@V?$_Tmap_traits@V?$basic_string@DU?$char_traits@D@std@@V?$allocator@D@2@@std@@V12@U?$less@V?$basic_string@DU?$char_traits@D@std@@V?$allocator@D@2@@std@@@2@V?$allocator@U?$pair@$$CBV?$basic_string@DU?$char_traits@D@std@@V?$allocator@D@2@@std@@V12@@std@@@2@$0A@@std@@@std@@KAABV?$basic_string@DU?$char_traits@D@std@@V?$allocator@D@2@@2@PAU_Node@?$_Tree_nod@V?$_Tmap_traits@V?$basic_string@DU?$char_traits@D@std@@V?$allocator@D@2@@std@@V12@U?$less@V?$basic_string@DU?$char_traits@D@std@@V?$allocator@D@2@@std@@@2@V?$allocator@U?$pair@$$CBV?$basic_string@DU?$char_traits@D@std@@V?$allocator@D@2@@std@@V12@@std@@@2@$0A@@std@@@2@@Z 100101f0 f i main.obj
 0001:0000f210       ??0?$_Tree@V?$_Tmap_traits@V?$basic_string@DU?$char_traits@D@std@@V?$allocator@D@2@@std@@V12@U?$less@V?$basic_string@DU?$char_traits@D@std@@V?$allocator@D@2@@std@@@2@V?$allocator@U?$pair@$$CBV?$basic_string@DU?$char_traits@D@std@@V?$allocator@D@2@@std@@V12@@std@@@2@$0A@@std@@@std@@QAE@ABU?$less@V?$basic_string@DU?$char_traits@D@std@@V?$allocator@D@2@@std@@@1@ABV?$allocator@U?$pair@$$CBV?$basic_string@DU?$char_traits@D@std@@V?$allocator@D@2@@std@@V12@@std@@@1@@Z 10010210 f i main.obj
 0001:0000f280       ?begin@?$_Tree@V?$_Tmap_traits@V?$basic_string@DU?$char_traits@D@std@@V?$allocator@D@2@@std@@V12@U?$less@V?$basic_string@DU?$char_traits@D@std@@V?$allocator@D@2@@std@@@2@V?$allocator@U?$pair@$$CBV?$basic_string@DU?$char_traits@D@std@@V?$allocator@D@2@@std@@V12@@std@@@2@$0A@@std@@@std@@QAE?AViterator@12@XZ 10010280 f i main.obj
 0001:0000f2b0       ?get_allocator@?$_Tree@V?$_Tmap_traits@V?$basic_string@DU?$char_traits@D@std@@V?$allocator@D@2@@std@@V12@U?$less@V?$basic_string@DU?$char_traits@D@std@@V?$allocator@D@2@@std@@@2@V?$allocator@U?$pair@$$CBV?$basic_string@DU?$char_traits@D@std@@V?$allocator@D@2@@std@@V12@@std@@@2@$0A@@std@@@std@@QBE?AV?$allocator@U?$pair@$$CBV?$basic_string@DU?$char_traits@D@std@@V?$allocator@D@2@@std@@V12@@std@@@2@XZ 100102b0 f i main.obj
 0001:0000f2d0       ?key_comp@?$_Tree@V?$_Tmap_traits@V?$basic_string@DU?$char_traits@D@std@@V?$allocator@D@2@@std@@V12@U?$less@V?$basic_string@DU?$char_traits@D@std@@V?$allocator@D@2@@std@@@2@V?$allocator@U?$pair@$$CBV?$basic_string@DU?$char_traits@D@std@@V?$allocator@D@2@@std@@V12@@std@@@2@$0A@@std@@@std@@QBE?AU?$less@V?$basic_string@DU?$char_traits@D@std@@V?$allocator@D@2@@std@@@2@XZ 100102d0 f i main.obj
 0001:0000f2e0       ?insert@?$_Tree@V?$_Tmap_traits@V?$basic_string@DU?$char_traits@D@std@@V?$allocator@D@2@@std@@V12@U?$less@V?$basic_string@DU?$char_traits@D@std@@V?$allocator@D@2@@std@@@2@V?$allocator@U?$pair@$$CBV?$basic_string@DU?$char_traits@D@std@@V?$allocator@D@2@@std@@V12@@std@@@2@$0A@@std@@@std@@QAE?AViterator@12@Vconst_iterator@12@ABU?$pair@$$CBV?$basic_string@DU?$char_traits@D@std@@V?$allocator@D@2@@std@@V12@@2@@Z 100102e0 f i main.obj
 0001:0000f900       ?erase@?$_Tree@V?$_Tmap_traits@V?$basic_string@DU?$char_traits@D@std@@V?$allocator@D@2@@std@@V12@U?$less@V?$basic_string@DU?$char_traits@D@std@@V?$allocator@D@2@@std@@@2@V?$allocator@U?$pair@$$CBV?$basic_string@DU?$char_traits@D@std@@V?$allocator@D@2@@std@@V12@@std@@@2@$0A@@std@@@std@@QAE?AViterator@12@Vconst_iterator@12@0@Z 10010900 f i main.obj
 0001:0000f9b0       ?lower_bound@?$_Tree@V?$_Tmap_traits@V?$basic_string@DU?$char_traits@D@std@@V?$allocator@D@2@@std@@V12@U?$less@V?$basic_string@DU?$char_traits@D@std@@V?$allocator@D@2@@std@@@2@V?$allocator@U?$pair@$$CBV?$basic_string@DU?$char_traits@D@std@@V?$allocator@D@2@@std@@V12@@std@@@2@$0A@@std@@@std@@QAE?AViterator@12@ABV?$basic_string@DU?$char_traits@D@std@@V?$allocator@D@2@@2@@Z 100109b0 f i main.obj
 0001:0000f9e0       ?_Copy@?$_Tree@V?$_Tmap_traits@V?$basic_string@DU?$char_traits@D@std@@V?$allocator@D@2@@std@@V12@U?$less@V?$basic_string@DU?$char_traits@D@std@@V?$allocator@D@2@@std@@@2@V?$allocator@U?$pair@$$CBV?$basic_string@DU?$char_traits@D@std@@V?$allocator@D@2@@std@@V12@@std@@@2@$0A@@std@@@std@@IAEXABV12@@Z 100109e0 f i main.obj
 0001:0000faa0       ?_Init@?$_Tree@V?$_Tmap_traits@V?$basic_string@DU?$char_traits@D@std@@V?$allocator@D@2@@std@@V12@U?$less@V?$basic_string@DU?$char_traits@D@std@@V?$allocator@D@2@@std@@@2@V?$allocator@U?$pair@$$CBV?$basic_string@DU?$char_traits@D@std@@V?$allocator@D@2@@std@@V12@@std@@@2@$0A@@std@@@std@@IAEXXZ 10010aa0 f i main.obj
 0001:0000fb10       ?_Tidy@?$_Tree@V?$_Tmap_traits@V?$basic_string@DU?$char_traits@D@std@@V?$allocator@D@2@@std@@V12@U?$less@V?$basic_string@DU?$char_traits@D@std@@V?$allocator@D@2@@std@@@2@V?$allocator@U?$pair@$$CBV?$basic_string@DU?$char_traits@D@std@@V?$allocator@D@2@@std@@V12@@std@@@2@$0A@@std@@@std@@IAEXXZ 10010b10 f i main.obj
 0001:0000fbe0       ??0?$_Tree_val@V?$_Tmap_traits@V?$basic_string@DU?$char_traits@D@std@@V?$allocator@D@2@@std@@V12@U?$less@V?$basic_string@DU?$char_traits@D@std@@V?$allocator@D@2@@std@@@2@V?$allocator@U?$pair@$$CBV?$basic_string@DU?$char_traits@D@std@@V?$allocator@D@2@@std@@V12@@std@@@2@$0A@@std@@@std@@IAE@ABU?$less@V?$basic_string@DU?$char_traits@D@std@@V?$allocator@D@2@@std@@@1@V?$allocator@U?$pair@$$CBV?$basic_string@DU?$char_traits@D@std@@V?$allocator@D@2@@std@@V12@@std@@@1@@Z 10010be0 f i main.obj
 0001:0000fc20       ??1?$_Container_base_aux_alloc_real@V?$allocator@U?$pair@$$CBV?$basic_string@DU?$char_traits@D@std@@V?$allocator@D@2@@std@@V12@@std@@@std@@@std@@IAE@XZ 10010c20 f i main.obj
 0001:0000fc80       ??0?$allocator@U?$pair@$$CBV?$basic_string@DU?$char_traits@D@std@@V?$allocator@D@2@@std@@V12@@std@@@std@@QAE@XZ 10010c80 f i main.obj
 0001:0000fc90       ?capacity@?$vector@HV?$allocator@H@std@@@std@@QBEIXZ 10010c90 f i main.obj
 0001:0000fcd0       ?begin@?$vector@HV?$allocator@H@std@@@std@@QBE?AV?$_Vector_const_iterator@HV?$allocator@H@std@@@2@XZ 10010cd0 f i main.obj
 0001:0000fd00       ?end@?$vector@HV?$allocator@H@std@@@std@@QAE?AV?$_Vector_iterator@HV?$allocator@H@std@@@2@XZ 10010d00 f i main.obj
 0001:0000fd30       ?end@?$vector@HV?$allocator@H@std@@@std@@QBE?AV?$_Vector_const_iterator@HV?$allocator@H@std@@@2@XZ 10010d30 f i main.obj
 0001:0000fd60       ?size@?$vector@HV?$allocator@H@std@@@std@@QBEIXZ 10010d60 f i main.obj
 0001:0000fd80       ?insert@?$vector@HV?$allocator@H@std@@@std@@QAE?AV?$_Vector_iterator@HV?$allocator@H@std@@@2@V?$_Vector_const_iterator@HV?$allocator@H@std@@@2@ABH@Z 10010d80 f i main.obj
 0001:0000fe00       ?begin@?$vector@HV?$allocator@H@std@@@std@@QAE?AV?$_Vector_iterator@HV?$allocator@H@std@@@2@XZ 10010e00 f i main.obj
 0001:0000fe30       ?_Buy@?$vector@HV?$allocator@H@std@@@std@@IAE_NI@Z 10010e30 f i main.obj
 0001:0000feb0       ?_Tidy@?$vector@HV?$allocator@H@std@@@std@@IAEXXZ 10010eb0 f i main.obj
 0001:0000ff20       ?_Ufill@?$vector@HV?$allocator@H@std@@@std@@IAEPAHPAHIABH@Z 10010f20 f i main.obj
 0001:0000ff60       ??0?$_Vector_val@HV?$allocator@H@std@@@std@@IAE@V?$allocator@H@1@@Z 10010f60 f i main.obj
 0001:0000ffa0       ??1?$_Container_base_aux_alloc_real@V?$allocator@H@std@@@std@@IAE@XZ 10010fa0 f i main.obj
 0001:00010000       ??0?$allocator@H@std@@QAE@XZ 10011000 f i main.obj
 0001:00010010       ??0?$allocator@H@std@@QAE@ABV01@@Z 10011010 f i main.obj
 0001:00010020       ??8?$_Vector_const_iterator@IV?$allocator@I@std@@@std@@QBE_NABV01@@Z 10011020 f i main.obj
 0001:00010070       ?size@?$deque@V?$basic_string@DU?$char_traits@D@std@@V?$allocator@D@2@@std@@V?$allocator@V?$basic_string@DU?$char_traits@D@std@@V?$allocator@D@2@@std@@@2@@std@@QBEIXZ 10011070 f i main.obj
 0001:00010090       ?front@?$deque@V?$basic_string@DU?$char_traits@D@std@@V?$allocator@D@2@@std@@V?$allocator@V?$basic_string@DU?$char_traits@D@std@@V?$allocator@D@2@@std@@@2@@std@@QAEAAV?$basic_string@DU?$char_traits@D@std@@V?$allocator@D@2@@2@XZ 10011090 f i main.obj
 0001:000100b0       ?begin@?$deque@V?$basic_string@DU?$char_traits@D@std@@V?$allocator@D@2@@std@@V?$allocator@V?$basic_string@DU?$char_traits@D@std@@V?$allocator@D@2@@std@@@2@@std@@QAE?AV?$_Deque_iterator@V?$basic_string@DU?$char_traits@D@std@@V?$allocator@D@2@@std@@V?$allocator@V?$basic_string@DU?$char_traits@D@std@@V?$allocator@D@2@@std@@@2@$00@2@XZ 100110b0 f i main.obj
 0001:000100e0       ?pop_front@?$deque@V?$basic_string@DU?$char_traits@D@std@@V?$allocator@D@2@@std@@V?$allocator@V?$basic_string@DU?$char_traits@D@std@@V?$allocator@D@2@@std@@@2@@std@@QAEXXZ 100110e0 f i main.obj
 0001:00010180       ?_Growmap@?$deque@V?$basic_string@DU?$char_traits@D@std@@V?$allocator@D@2@@std@@V?$allocator@V?$basic_string@DU?$char_traits@D@std@@V?$allocator@D@2@@std@@@2@@std@@IAEXI@Z 10011180 f i main.obj
 0001:000103a0       ?_Tidy@?$deque@V?$basic_string@DU?$char_traits@D@std@@V?$allocator@D@2@@std@@V?$allocator@V?$basic_string@DU?$char_traits@D@std@@V?$allocator@D@2@@std@@@2@@std@@IAEXXZ 100113a0 f i main.obj
 0001:00010460       ?deallocate@?$allocator@V?$basic_string@DU?$char_traits@D@std@@V?$allocator@D@2@@std@@@std@@QAEXPAV?$basic_string@DU?$char_traits@D@std@@V?$allocator@D@2@@2@I@Z 10011460 f i main.obj
 0001:00010480       ??0?$_Deque_val@V?$basic_string@DU?$char_traits@D@std@@V?$allocator@D@2@@std@@V?$allocator@V?$basic_string@DU?$char_traits@D@std@@V?$allocator@D@2@@std@@@2@@std@@IAE@V?$allocator@V?$basic_string@DU?$char_traits@D@std@@V?$allocator@D@2@@std@@@1@@Z 10011480 f i main.obj
 0001:000104c0       ?_Mynode@const_iterator@?$_Tree@V?$_Tmap_traits@V?$basic_string@DU?$char_traits@D@std@@V?$allocator@D@2@@std@@V12@U?$less@V?$basic_string@DU?$char_traits@D@std@@V?$allocator@D@2@@std@@@2@V?$allocator@U?$pair@$$CBV?$basic_string@DU?$char_traits@D@std@@V?$allocator@D@2@@std@@V12@@std@@@2@$0A@@std@@@std@@QBEPAU_Node@?$_Tree_nod@V?$_Tmap_traits@V?$basic_string@DU?$char_traits@D@std@@V?$allocator@D@2@@std@@V12@U?$less@V?$basic_string@DU?$char_traits@D@std@@V?$allocator@D@2@@std@@@2@V?$allocator@U?$pair@$$CBV?$basic_string@DU?$char_traits@D@std@@V?$allocator@D@2@@std@@V12@@std@@@2@$0A@@std@@@3@XZ 100114c0 f i main.obj
 0001:000104e0       ??0iterator@?$_Tree@V?$_Tmap_traits@V?$basic_string@DU?$char_traits@D@std@@V?$allocator@D@2@@std@@V12@U?$less@V?$basic_string@DU?$char_traits@D@std@@V?$allocator@D@2@@std@@@2@V?$allocator@U?$pair@$$CBV?$basic_string@DU?$char_traits@D@std@@V?$allocator@D@2@@std@@V12@@std@@@2@$0A@@std@@@std@@QAE@PAU_Node@?$_Tree_nod@V?$_Tmap_traits@V?$basic_string@DU?$char_traits@D@std@@V?$allocator@D@2@@std@@V12@U?$less@V?$basic_string@DU?$char_traits@D@std@@V?$allocator@D@2@@std@@@2@V?$allocator@U?$pair@$$CBV?$basic_string@DU?$char_traits@D@std@@V?$allocator@D@2@@std@@V12@@std@@@2@$0A@@std@@@2@PBV12@@Z 100114e0 f i main.obj
 0001:00010500       ??Diterator@?$_Tree@V?$_Tmap_traits@V?$basic_string@DU?$char_traits@D@std@@V?$allocator@D@2@@std@@V12@U?$less@V?$basic_string@DU?$char_traits@D@std@@V?$allocator@D@2@@std@@@2@V?$allocator@U?$pair@$$CBV?$basic_string@DU?$char_traits@D@std@@V?$allocator@D@2@@std@@V12@@std@@@2@$0A@@std@@@std@@QBEAAU?$pair@$$CBV?$basic_string@DU?$char_traits@D@std@@V?$allocator@D@2@@std@@V12@@2@XZ 10011500 f i main.obj
 0001:00010520       ??Dconst_iterator@?$_Tree@V?$_Tmap_traits@V?$basic_string@DU?$char_traits@D@std@@V?$allocator@D@2@@std@@V12@U?$less@V?$basic_string@DU?$char_traits@D@std@@V?$allocator@D@2@@std@@@2@V?$allocator@U?$pair@$$CBV?$basic_string@DU?$char_traits@D@std@@V?$allocator@D@2@@std@@V12@@std@@@2@$0A@@std@@@std@@QBEABU?$pair@$$CBV?$basic_string@DU?$char_traits@D@std@@V?$allocator@D@2@@std@@V12@@2@XZ 10011520 f i main.obj
 0001:00010570       ?_Getmycont@_Iterator_base_aux@std@@QBEPBV_Container_base_aux@2@XZ 10011570 f i main.obj
 0001:000105a0       ?_Getcont@_Aux_cont@std@@QBEPBV_Container_base_aux@2@XZ 100115a0 f i main.obj
 0001:000105b0       ??0?$pair@$$CBV?$basic_string@DU?$char_traits@D@std@@V?$allocator@D@2@@std@@V12@@std@@QAE@ABV?$basic_string@DU?$char_traits@D@std@@V?$allocator@D@2@@1@0@Z 100115b0 f i main.obj
 0001:00010620       ??1?$_Container_base_aux_alloc_real@V?$allocator@PAVGeometry@osg@@@std@@@std@@IAE@XZ 10011620 f i main.obj
 0001:00010680       ??0?$allocator@PAVGeometry@osg@@@std@@QAE@XZ 10011680 f i main.obj
 0001:00010690       ?_Nextnode@?$list@PAVGeometry@osg@@V?$allocator@PAVGeometry@osg@@@std@@@std@@KAAAPAU_Node@?$_List_nod@PAVGeometry@osg@@V?$allocator@PAVGeometry@osg@@@std@@@2@PAU342@@Z 10011690 f i main.obj
 0001:000106a0       ?_Insert@?$list@PAVGeometry@osg@@V?$allocator@PAVGeometry@osg@@@std@@@std@@QAEXV?$_Const_iterator@$00@12@ABQAVGeometry@osg@@@Z 100116a0 f i main.obj
 0001:00010720       ?_Buynode@?$list@PAVGeometry@osg@@V?$allocator@PAVGeometry@osg@@@std@@@std@@IAEPAU_Node@?$_List_nod@PAVGeometry@osg@@V?$allocator@PAVGeometry@osg@@@std@@@2@XZ 10011720 f i main.obj
 0001:00010820       ?_Tidy@?$list@PAVGeometry@osg@@V?$allocator@PAVGeometry@osg@@@std@@@std@@IAEXXZ 10011820 f i main.obj
 0001:00010890       ??0?$_List_val@PAVGeometry@osg@@V?$allocator@PAVGeometry@osg@@@std@@@std@@QAE@V?$allocator@PAVGeometry@osg@@@1@@Z 10011890 f i main.obj
 0001:000108d0       ??0?$_Iterator@$00@?$list@PAVGeometry@osg@@V?$allocator@PAVGeometry@osg@@@std@@@std@@QAE@PAU_Node@?$_List_nod@PAVGeometry@osg@@V?$allocator@PAVGeometry@osg@@@std@@@2@PBV12@@Z 100118d0 f i main.obj
 0001:000108f0       ??E?$_Iterator@$00@?$list@PAVGeometry@osg@@V?$allocator@PAVGeometry@osg@@@std@@@std@@QAEAAV012@XZ 100118f0 f i main.obj
 0001:00010910       ??0?$_Const_iterator@$00@?$list@PAVGeometry@osg@@V?$allocator@PAVGeometry@osg@@@std@@@std@@QAE@XZ 10011910 f i main.obj
 0001:00010930       ??D?$_Const_iterator@$00@?$list@PAVGeometry@osg@@V?$allocator@PAVGeometry@osg@@@std@@@std@@QBEABQAVGeometry@osg@@XZ 10011930 f i main.obj
 0001:00010990       ??8?$_Const_iterator@$00@?$list@PAVGeometry@osg@@V?$allocator@PAVGeometry@osg@@@std@@@std@@QBE_NABV012@@Z 10011990 f i main.obj
 0001:000109f0       ?_Nextnode@?$list@VReadResult@ReaderWriter@osgDB@@V?$allocator@VReadResult@ReaderWriter@osgDB@@@std@@@std@@KAAAPAU_Node@?$_List_nod@VReadResult@ReaderWriter@osgDB@@V?$allocator@VReadResult@ReaderWriter@osgDB@@@std@@@2@PAU342@@Z 100119f0 f i main.obj
 0001:00010a00       ?_Insert@?$list@VReadResult@ReaderWriter@osgDB@@V?$allocator@VReadResult@ReaderWriter@osgDB@@@std@@@std@@QAEXV?$_Const_iterator@$00@12@ABVReadResult@ReaderWriter@osgDB@@@Z 10011a00 f i main.obj
 0001:00010a80       ?_Buynode@?$list@VReadResult@ReaderWriter@osgDB@@V?$allocator@VReadResult@ReaderWriter@osgDB@@@std@@@std@@IAEPAU_Node@?$_List_nod@VReadResult@ReaderWriter@osgDB@@V?$allocator@VReadResult@ReaderWriter@osgDB@@@std@@@2@XZ 10011a80 f i main.obj
 0001:00010b80       ?_Tidy@?$list@VReadResult@ReaderWriter@osgDB@@V?$allocator@VReadResult@ReaderWriter@osgDB@@@std@@@std@@IAEXXZ 10011b80 f i main.obj
 0001:00010bf0       ??0?$_List_val@VReadResult@ReaderWriter@osgDB@@V?$allocator@VReadResult@ReaderWriter@osgDB@@@std@@@std@@QAE@V?$allocator@VReadResult@ReaderWriter@osgDB@@@1@@Z 10011bf0 f i main.obj
 0001:00010c30       ??1?$_Container_base_aux_alloc_real@V?$allocator@VReadResult@ReaderWriter@osgDB@@@std@@@std@@IAE@XZ 10011c30 f i main.obj
 0001:00010c90       ??0?$allocator@VReadResult@ReaderWriter@osgDB@@@std@@QAE@XZ 10011c90 f i main.obj
 0001:00010ca0       ??0?$_Iterator@$00@?$list@VReadResult@ReaderWriter@osgDB@@V?$allocator@VReadResult@ReaderWriter@osgDB@@@std@@@std@@QAE@PAU_Node@?$_List_nod@VReadResult@ReaderWriter@osgDB@@V?$allocator@VReadResult@ReaderWriter@osgDB@@@std@@@2@PBV12@@Z 10011ca0 f i main.obj
 0001:00010cc0       ??D?$_Iterator@$00@?$list@VReadResult@ReaderWriter@osgDB@@V?$allocator@VReadResult@ReaderWriter@osgDB@@@std@@@std@@QBEAAVReadResult@ReaderWriter@osgDB@@XZ 10011cc0 f i main.obj
 0001:00010ce0       ??E?$_Iterator@$00@?$list@VReadResult@ReaderWriter@osgDB@@V?$allocator@VReadResult@ReaderWriter@osgDB@@@std@@@std@@QAEAAV012@XZ 10011ce0 f i main.obj
 0001:00010d00       ??0?$_Const_iterator@$00@?$list@VReadResult@ReaderWriter@osgDB@@V?$allocator@VReadResult@ReaderWriter@osgDB@@@std@@@std@@QAE@XZ 10011d00 f i main.obj
 0001:00010d20       ??8?$_Const_iterator@$00@?$list@VReadResult@ReaderWriter@osgDB@@V?$allocator@VReadResult@ReaderWriter@osgDB@@@std@@@std@@QBE_NABV012@@Z 10011d20 f i main.obj
 0001:00010d80       ?_Nextnode@?$list@V?$basic_string@DU?$char_traits@D@std@@V?$allocator@D@2@@std@@V?$allocator@V?$basic_string@DU?$char_traits@D@std@@V?$allocator@D@2@@std@@@2@@std@@KAAAPAU_Node@?$_List_nod@V?$basic_string@DU?$char_traits@D@std@@V?$allocator@D@2@@std@@V?$allocator@V?$basic_string@DU?$char_traits@D@std@@V?$allocator@D@2@@std@@@2@@2@PAU342@@Z 10011d80 f i main.obj
 0001:00010d90       ?_Insert@?$list@V?$basic_string@DU?$char_traits@D@std@@V?$allocator@D@2@@std@@V?$allocator@V?$basic_string@DU?$char_traits@D@std@@V?$allocator@D@2@@std@@@2@@std@@QAEXV?$_Const_iterator@$00@12@ABV?$basic_string@DU?$char_traits@D@std@@V?$allocator@D@2@@2@@Z 10011d90 f i main.obj
 0001:00010e10       ?_Buynode@?$list@V?$basic_string@DU?$char_traits@D@std@@V?$allocator@D@2@@std@@V?$allocator@V?$basic_string@DU?$char_traits@D@std@@V?$allocator@D@2@@std@@@2@@std@@IAEPAU_Node@?$_List_nod@V?$basic_string@DU?$char_traits@D@std@@V?$allocator@D@2@@std@@V?$allocator@V?$basic_string@DU?$char_traits@D@std@@V?$allocator@D@2@@std@@@2@@2@XZ 10011e10 f i main.obj
 0001:00010f10       ?_Tidy@?$list@V?$basic_string@DU?$char_traits@D@std@@V?$allocator@D@2@@std@@V?$allocator@V?$basic_string@DU?$char_traits@D@std@@V?$allocator@D@2@@std@@@2@@std@@IAEXXZ 10011f10 f i main.obj
 0001:00010f80       ??0?$_List_val@V?$basic_string@DU?$char_traits@D@std@@V?$allocator@D@2@@std@@V?$allocator@V?$basic_string@DU?$char_traits@D@std@@V?$allocator@D@2@@std@@@2@@std@@QAE@V?$allocator@V?$basic_string@DU?$char_traits@D@std@@V?$allocator@D@2@@std@@@1@@Z 10011f80 f i main.obj
 0001:00010fc0       ??0?$_Iterator@$00@?$list@V?$basic_string@DU?$char_traits@D@std@@V?$allocator@D@2@@std@@V?$allocator@V?$basic_string@DU?$char_traits@D@std@@V?$allocator@D@2@@std@@@2@@std@@QAE@PAU_Node@?$_List_nod@V?$basic_string@DU?$char_traits@D@std@@V?$allocator@D@2@@std@@V?$allocator@V?$basic_string@DU?$char_traits@D@std@@V?$allocator@D@2@@std@@@2@@2@PBV12@@Z 10011fc0 f i main.obj
 0001:00010fe0       ??8?$_Const_iterator@$00@?$list@V?$basic_string@DU?$char_traits@D@std@@V?$allocator@D@2@@std@@V?$allocator@V?$basic_string@DU?$char_traits@D@std@@V?$allocator@D@2@@std@@@2@@std@@QBE_NABV012@@Z 10011fe0 f i main.obj
 0001:00011040       ?_Nextnode@?$list@PAVZipEntry@@V?$allocator@PAVZipEntry@@@std@@@std@@KAAAPAU_Node@?$_List_nod@PAVZipEntry@@V?$allocator@PAVZipEntry@@@std@@@2@PAU342@@Z 10012040 f i main.obj
 0001:00011050       ?_Insert@?$list@PAVZipEntry@@V?$allocator@PAVZipEntry@@@std@@@std@@QAEXV?$_Const_iterator@$00@12@ABQAVZipEntry@@@Z 10012050 f i main.obj
 0001:000110d0       ?_Buynode@?$list@PAVZipEntry@@V?$allocator@PAVZipEntry@@@std@@@std@@IAEPAU_Node@?$_List_nod@PAVZipEntry@@V?$allocator@PAVZipEntry@@@std@@@2@XZ 100120d0 f i main.obj
 0001:000111d0       ?_Tidy@?$list@PAVZipEntry@@V?$allocator@PAVZipEntry@@@std@@@std@@IAEXXZ 100121d0 f i main.obj
 0001:00011240       ??0?$_List_val@PAVZipEntry@@V?$allocator@PAVZipEntry@@@std@@@std@@QAE@V?$allocator@PAVZipEntry@@@1@@Z 10012240 f i main.obj
 0001:00011280       ??1?$_Container_base_aux_alloc_real@V?$allocator@PAVZipEntry@@@std@@@std@@IAE@XZ 10012280 f i main.obj
 0001:000112e0       ??0?$allocator@PAVZipEntry@@@std@@QAE@XZ 100122e0 f i main.obj
 0001:000112f0       ??0?$_Iterator@$00@?$list@PAVZipEntry@@V?$allocator@PAVZipEntry@@@std@@@std@@QAE@PAU_Node@?$_List_nod@PAVZipEntry@@V?$allocator@PAVZipEntry@@@std@@@2@PBV12@@Z 100122f0 f i main.obj
 0001:00011310       ??E?$_Iterator@$00@?$list@PAVZipEntry@@V?$allocator@PAVZipEntry@@@std@@@std@@QAEAAV012@XZ 10012310 f i main.obj
 0001:00011330       ??0?$_Const_iterator@$00@?$list@PAVZipEntry@@V?$allocator@PAVZipEntry@@@std@@@std@@QAE@XZ 10012330 f i main.obj
 0001:00011350       ??D?$_Const_iterator@$00@?$list@PAVZipEntry@@V?$allocator@PAVZipEntry@@@std@@@std@@QBEABQAVZipEntry@@XZ 10012350 f i main.obj
 0001:000113b0       ??8?$_Const_iterator@$00@?$list@PAVZipEntry@@V?$allocator@PAVZipEntry@@@std@@@std@@QBE_NABV012@@Z 100123b0 f i main.obj
 0001:00011410       ?_Nextnode@?$list@U?$pair@V?$basic_string@DU?$char_traits@D@std@@V?$allocator@D@2@@std@@V12@@std@@V?$allocator@U?$pair@V?$basic_string@DU?$char_traits@D@std@@V?$allocator@D@2@@std@@V12@@std@@@2@@std@@KAAAPAU_Node@?$_List_nod@U?$pair@V?$basic_string@DU?$char_traits@D@std@@V?$allocator@D@2@@std@@V12@@std@@V?$allocator@U?$pair@V?$basic_string@DU?$char_traits@D@std@@V?$allocator@D@2@@std@@V12@@std@@@2@@2@PAU342@@Z 10012410 f i main.obj
 0001:00011420       ?_Insert@?$list@U?$pair@V?$basic_string@DU?$char_traits@D@std@@V?$allocator@D@2@@std@@V12@@std@@V?$allocator@U?$pair@V?$basic_string@DU?$char_traits@D@std@@V?$allocator@D@2@@std@@V12@@std@@@2@@std@@QAEXV?$_Const_iterator@$00@12@ABU?$pair@V?$basic_string@DU?$char_traits@D@std@@V?$allocator@D@2@@std@@V12@@2@@Z 10012420 f i main.obj
 0001:000114a0       ?erase@?$list@U?$pair@V?$basic_string@DU?$char_traits@D@std@@V?$allocator@D@2@@std@@V12@@std@@V?$allocator@U?$pair@V?$basic_string@DU?$char_traits@D@std@@V?$allocator@D@2@@std@@V12@@std@@@2@@std@@QAE?AV?$_Iterator@$00@12@V?$_Const_iterator@$00@12@@Z 100124a0 f i main.obj
 0001:00011570       ?_Buynode@?$list@U?$pair@V?$basic_string@DU?$char_traits@D@std@@V?$allocator@D@2@@std@@V12@@std@@V?$allocator@U?$pair@V?$basic_string@DU?$char_traits@D@std@@V?$allocator@D@2@@std@@V12@@std@@@2@@std@@IAEPAU_Node@?$_List_nod@U?$pair@V?$basic_string@DU?$char_traits@D@std@@V?$allocator@D@2@@std@@V12@@std@@V?$allocator@U?$pair@V?$basic_string@DU?$char_traits@D@std@@V?$allocator@D@2@@std@@V12@@std@@@2@@2@XZ 10012570 f i main.obj
 0001:00011670       ?_Tidy@?$list@U?$pair@V?$basic_string@DU?$char_traits@D@std@@V?$allocator@D@2@@std@@V12@@std@@V?$allocator@U?$pair@V?$basic_string@DU?$char_traits@D@std@@V?$allocator@D@2@@std@@V12@@std@@@2@@std@@IAEXXZ 10012670 f i main.obj
 0001:000116e0       ??0?$_List_val@U?$pair@V?$basic_string@DU?$char_traits@D@std@@V?$allocator@D@2@@std@@V12@@std@@V?$allocator@U?$pair@V?$basic_string@DU?$char_traits@D@std@@V?$allocator@D@2@@std@@V12@@std@@@2@@std@@QAE@V?$allocator@U?$pair@V?$basic_string@DU?$char_traits@D@std@@V?$allocator@D@2@@std@@V12@@std@@@1@@Z 100126e0 f i main.obj
 0001:00011720       ??1?$_Container_base_aux_alloc_real@V?$allocator@U?$pair@V?$basic_string@DU?$char_traits@D@std@@V?$allocator@D@2@@std@@V12@@std@@@std@@@std@@IAE@XZ 10012720 f i main.obj
 0001:00011780       ??0?$allocator@U?$pair@V?$basic_string@DU?$char_traits@D@std@@V?$allocator@D@2@@std@@V12@@std@@@std@@QAE@XZ 10012780 f i main.obj
 0001:00011790       ??0?$_Iterator@$00@?$list@U?$pair@V?$basic_string@DU?$char_traits@D@std@@V?$allocator@D@2@@std@@V12@@std@@V?$allocator@U?$pair@V?$basic_string@DU?$char_traits@D@std@@V?$allocator@D@2@@std@@V12@@std@@@2@@std@@QAE@PAU_Node@?$_List_nod@U?$pair@V?$basic_string@DU?$char_traits@D@std@@V?$allocator@D@2@@std@@V12@@std@@V?$allocator@U?$pair@V?$basic_string@DU?$char_traits@D@std@@V?$allocator@D@2@@std@@V12@@std@@@2@@2@PBV12@@Z 10012790 f i main.obj
 0001:000117b0       ??D?$_Iterator@$00@?$list@U?$pair@V?$basic_string@DU?$char_traits@D@std@@V?$allocator@D@2@@std@@V12@@std@@V?$allocator@U?$pair@V?$basic_string@DU?$char_traits@D@std@@V?$allocator@D@2@@std@@V12@@std@@@2@@std@@QBEAAU?$pair@V?$basic_string@DU?$char_traits@D@std@@V?$allocator@D@2@@std@@V12@@2@XZ 100127b0 f i main.obj
 0001:000117d0       ??E?$_Iterator@$00@?$list@U?$pair@V?$basic_string@DU?$char_traits@D@std@@V?$allocator@D@2@@std@@V12@@std@@V?$allocator@U?$pair@V?$basic_string@DU?$char_traits@D@std@@V?$allocator@D@2@@std@@V12@@std@@@2@@std@@QAEAAV012@XZ 100127d0 f i main.obj
 0001:000117f0       ??0?$_Const_iterator@$00@?$list@U?$pair@V?$basic_string@DU?$char_traits@D@std@@V?$allocator@D@2@@std@@V12@@std@@V?$allocator@U?$pair@V?$basic_string@DU?$char_traits@D@std@@V?$allocator@D@2@@std@@V12@@std@@@2@@std@@QAE@XZ 100127f0 f i main.obj
 0001:00011810       ??8?$_Const_iterator@$00@?$list@U?$pair@V?$basic_string@DU?$char_traits@D@std@@V?$allocator@D@2@@std@@V12@@std@@V?$allocator@U?$pair@V?$basic_string@DU?$char_traits@D@std@@V?$allocator@D@2@@std@@V12@@std@@@2@@std@@QBE_NABV012@@Z 10012810 f i main.obj
 0001:00011870       ??D?$_Vector_iterator@IV?$allocator@I@std@@@std@@QBEAAIXZ 10012870 f i main.obj
 0001:00011890       ??D?$_Vector_const_iterator@IV?$allocator@I@std@@@std@@QBEABIXZ 10012890 f i main.obj
 0001:000118d0       ??0?$_Bidit@PAVGeometry@osg@@HPBQAV12@ABQAV12@@std@@QAE@XZ 100128d0 f i main.obj
 0001:000118f0       ??0?$_Bidit@VReadResult@ReaderWriter@osgDB@@HPBV123@ABV123@@std@@QAE@XZ 100128f0 f i main.obj
 0001:00011910       ??0?$_Bidit@PAVZipEntry@@HPBQAV1@ABQAV1@@std@@QAE@XZ 10012910 f i main.obj
 0001:00011930       ??0?$_Bidit@U?$pair@V?$basic_string@DU?$char_traits@D@std@@V?$allocator@D@2@@std@@V12@@std@@HPBU12@ABU12@@std@@QAE@XZ 10012930 f i main.obj
 0001:00011950       ??0?$_Iterator_with_base@Ubidirectional_iterator_tag@std@@PAVGeometry@osg@@HPBQAV34@ABQAV34@V_Iterator_base_aux@2@@std@@QAE@XZ 10012950 f i main.obj
 0001:00011970       ??0_Iterator_base_aux@std@@QAE@XZ 10012970 f i main.obj
 0001:00011990       ??0?$_Iterator_with_base@Ubidirectional_iterator_tag@std@@VReadResult@ReaderWriter@osgDB@@HPBV345@ABV345@V_Iterator_base_aux@2@@std@@QAE@XZ 10012990 f i main.obj
 0001:000119b0       ??0?$_Iterator_with_base@Ubidirectional_iterator_tag@std@@PAVZipEntry@@HPBQAV3@ABQAV3@V_Iterator_base_aux@2@@std@@QAE@XZ 100129b0 f i main.obj
 0001:000119d0       ??0?$_Iterator_with_base@Ubidirectional_iterator_tag@std@@U?$pair@V?$basic_string@DU?$char_traits@D@std@@V?$allocator@D@2@@std@@V12@@2@HPBU32@ABU32@V_Iterator_base_aux@2@@std@@QAE@XZ 100129d0 f i main.obj
 0001:000119f0       ?deallocate@?$allocator@V_Aux_cont@std@@@std@@QAEXPAV_Aux_cont@2@I@Z 100129f0 f i main.obj
 0001:00011a10       ?_Make_iter@?$vector@IV?$allocator@I@std@@@std@@QBE?AV?$_Vector_iterator@IV?$allocator@I@std@@@2@V?$_Vector_const_iterator@IV?$allocator@I@std@@@2@@Z 10012a10 f i main.obj
 0001:00011a30       ?max_size@?$vector@IV?$allocator@I@std@@@std@@QBEIXZ 10012a30 f i main.obj
 0001:00011a50       ?_Insert_n@?$vector@IV?$allocator@I@std@@@std@@IAEXV?$_Vector_const_iterator@IV?$allocator@I@std@@@2@IABI@Z 10012a50 f i main.obj
 0001:00011e00       ?_Xlen@?$vector@IV?$allocator@I@std@@@std@@KAXXZ 10012e00 f i main.obj
 0001:00011e80       ??0length_error@std@@QAE@ABV?$basic_string@DU?$char_traits@D@std@@V?$allocator@D@2@@1@@Z 10012e80 f i main.obj
 0001:00011eb0       ??0logic_error@std@@QAE@ABV?$basic_string@DU?$char_traits@D@std@@V?$allocator@D@2@@1@@Z 10012eb0 f i main.obj
 0001:00011f20       ?what@logic_error@std@@UBEPBDXZ 10012f20 f i main.obj
 0001:00011f40       ??_Glogic_error@std@@UAEPAXI@Z 10012f40 f i main.obj
 0001:00011f40       ??_Elogic_error@std@@UAEPAXI@Z 10012f40 f i main.obj
 0001:00011f70       ??1logic_error@std@@UAE@XZ 10012f70 f i main.obj
 0001:00011fa0       ??1length_error@std@@UAE@XZ 10012fa0 f i main.obj
 0001:00011fc0       ??_Elength_error@std@@UAEPAXI@Z 10012fc0 f i main.obj
 0001:00011fc0       ??_Glength_error@std@@UAEPAXI@Z 10012fc0 f i main.obj
 0001:00011ff0       ??0logic_error@std@@QAE@ABV01@@Z 10012ff0 f i main.obj
 0001:00012070       ??0length_error@std@@QAE@ABV01@@Z 10013070 f i main.obj
 0001:000120a0       ??0?$_Container_base_aux_alloc_real@V?$allocator@I@std@@@std@@IAE@V?$allocator@I@1@@Z 100130a0 f i main.obj
 0001:00012160       ??2@YAPAXIPAX@Z            10013160 f i main.obj
 0001:00012170       ??3@YAXPAX0@Z              10013170 f i main.obj
 0001:00012180       ??0_Aux_cont@std@@QAE@QBV_Container_base_aux@1@@Z 10013180 f i main.obj
 0001:000121a0       ??0_Container_base_aux@std@@QAE@XZ 100131a0 f i main.obj
 0001:000121b0       ?allocate@?$allocator@I@std@@QAEPAII@Z 100131b0 f i main.obj
 0001:000121d0       ??0?$allocator@V?$basic_string@DU?$char_traits@D@std@@V?$allocator@D@2@@std@@@std@@QAE@ABV01@@Z 100131d0 f i main.obj
 0001:000121e0       ?destroy@?$allocator@V?$basic_string@DU?$char_traits@D@std@@V?$allocator@D@2@@std@@@std@@QAEXPAV?$basic_string@DU?$char_traits@D@std@@V?$allocator@D@2@@2@@Z 100131e0 f i main.obj
 0001:00012200       ?_Isnil@?$_Tree@V?$_Tmap_traits@V?$basic_string@DU?$char_traits@D@std@@V?$allocator@D@2@@std@@V12@U?$less@V?$basic_string@DU?$char_traits@D@std@@V?$allocator@D@2@@std@@@2@V?$allocator@U?$pair@$$CBV?$basic_string@DU?$char_traits@D@std@@V?$allocator@D@2@@std@@V12@@std@@@2@$0A@@std@@@std@@KAAADPAU_Node@?$_Tree_nod@V?$_Tmap_traits@V?$basic_string@DU?$char_traits@D@std@@V?$allocator@D@2@@std@@V12@U?$less@V?$basic_string@DU?$char_traits@D@std@@V?$allocator@D@2@@std@@@2@V?$allocator@U?$pair@$$CBV?$basic_string@DU?$char_traits@D@std@@V?$allocator@D@2@@std@@V12@@std@@@2@$0A@@std@@@2@@Z 10013200 f i main.obj
 0001:00012210       ?_Left@?$_Tree@V?$_Tmap_traits@V?$basic_string@DU?$char_traits@D@std@@V?$allocator@D@2@@std@@V12@U?$less@V?$basic_string@DU?$char_traits@D@std@@V?$allocator@D@2@@std@@@2@V?$allocator@U?$pair@$$CBV?$basic_string@DU?$char_traits@D@std@@V?$allocator@D@2@@std@@V12@@std@@@2@$0A@@std@@@std@@KAAAPAU_Node@?$_Tree_nod@V?$_Tmap_traits@V?$basic_string@DU?$char_traits@D@std@@V?$allocator@D@2@@std@@V12@U?$less@V?$basic_string@DU?$char_traits@D@std@@V?$allocator@D@2@@std@@@2@V?$allocator@U?$pair@$$CBV?$basic_string@DU?$char_traits@D@std@@V?$allocator@D@2@@std@@V12@@std@@@2@$0A@@std@@@2@PAU342@@Z 10013210 f i main.obj
 0001:00012220       ?_Parent@?$_Tree@V?$_Tmap_traits@V?$basic_string@DU?$char_traits@D@std@@V?$allocator@D@2@@std@@V12@U?$less@V?$basic_string@DU?$char_traits@D@std@@V?$allocator@D@2@@std@@@2@V?$allocator@U?$pair@$$CBV?$basic_string@DU?$char_traits@D@std@@V?$allocator@D@2@@std@@V12@@std@@@2@$0A@@std@@@std@@KAAAPAU_Node@?$_Tree_nod@V?$_Tmap_traits@V?$basic_string@DU?$char_traits@D@std@@V?$allocator@D@2@@std@@V12@U?$less@V?$basic_string@DU?$char_traits@D@std@@V?$allocator@D@2@@std@@@2@V?$allocator@U?$pair@$$CBV?$basic_string@DU?$char_traits@D@std@@V?$allocator@D@2@@std@@V12@@std@@@2@$0A@@std@@@2@PAU342@@Z 10013220 f i main.obj
 0001:00012230       ?_Right@?$_Tree@V?$_Tmap_traits@V?$basic_string@DU?$char_traits@D@std@@V?$allocator@D@2@@std@@V12@U?$less@V?$basic_string@DU?$char_traits@D@std@@V?$allocator@D@2@@std@@@2@V?$allocator@U?$pair@$$CBV?$basic_string@DU?$char_traits@D@std@@V?$allocator@D@2@@std@@V12@@std@@@2@$0A@@std@@@std@@KAAAPAU_Node@?$_Tree_nod@V?$_Tmap_traits@V?$basic_string@DU?$char_traits@D@std@@V?$allocator@D@2@@std@@V12@U?$less@V?$basic_string@DU?$char_traits@D@std@@V?$allocator@D@2@@std@@@2@V?$allocator@U?$pair@$$CBV?$basic_string@DU?$char_traits@D@std@@V?$allocator@D@2@@std@@V12@@std@@@2@$0A@@std@@@2@PAU342@@Z 10013230 f i main.obj
 0001:00012240       ?_Myval@?$_Tree@V?$_Tmap_traits@V?$basic_string@DU?$char_traits@D@std@@V?$allocator@D@2@@std@@V12@U?$less@V?$basic_string@DU?$char_traits@D@std@@V?$allocator@D@2@@std@@@2@V?$allocator@U?$pair@$$CBV?$basic_string@DU?$char_traits@D@std@@V?$allocator@D@2@@std@@V12@@std@@@2@$0A@@std@@@std@@KAAAU?$pair@$$CBV?$basic_string@DU?$char_traits@D@std@@V?$allocator@D@2@@std@@V12@@2@PAU_Node@?$_Tree_nod@V?$_Tmap_traits@V?$basic_string@DU?$char_traits@D@std@@V?$allocator@D@2@@std@@V12@U?$less@V?$basic_string@DU?$char_traits@D@std@@V?$allocator@D@2@@std@@@2@V?$allocator@U?$pair@$$CBV?$basic_string@DU?$char_traits@D@std@@V?$allocator@D@2@@std@@V12@@std@@@2@$0A@@std@@@2@@Z 10013240 f i main.obj
 0001:00012250       ?_Make_iter@?$_Tree@V?$_Tmap_traits@V?$basic_string@DU?$char_traits@D@std@@V?$allocator@D@2@@std@@V12@U?$less@V?$basic_string@DU?$char_traits@D@std@@V?$allocator@D@2@@std@@@2@V?$allocator@U?$pair@$$CBV?$basic_string@DU?$char_traits@D@std@@V?$allocator@D@2@@std@@V12@@std@@@2@$0A@@std@@@std@@QBE?AViterator@12@Vconst_iterator@12@@Z 10013250 f i main.obj
 0001:00012280       ?size@?$_Tree@V?$_Tmap_traits@V?$basic_string@DU?$char_traits@D@std@@V?$allocator@D@2@@std@@V12@U?$less@V?$basic_string@DU?$char_traits@D@std@@V?$allocator@D@2@@std@@@2@V?$allocator@U?$pair@$$CBV?$basic_string@DU?$char_traits@D@std@@V?$allocator@D@2@@std@@V12@@std@@@2@$0A@@std@@@std@@QBEIXZ 10013280 f i main.obj
 0001:000122a0       ?insert@?$_Tree@V?$_Tmap_traits@V?$basic_string@DU?$char_traits@D@std@@V?$allocator@D@2@@std@@V12@U?$less@V?$basic_string@DU?$char_traits@D@std@@V?$allocator@D@2@@std@@@2@V?$allocator@U?$pair@$$CBV?$basic_string@DU?$char_traits@D@std@@V?$allocator@D@2@@std@@V12@@std@@@2@$0A@@std@@@std@@QAE?AU?$pair@Viterator@?$_Tree@V?$_Tmap_traits@V?$basic_string@DU?$char_traits@D@std@@V?$allocator@D@2@@std@@V12@U?$less@V?$basic_string@DU?$char_traits@D@std@@V?$allocator@D@2@@std@@@2@V?$allocator@U?$pair@$$CBV?$basic_string@DU?$char_traits@D@std@@V?$allocator@D@2@@std@@V12@@std@@@2@$0A@@std@@@std@@_N@2@ABU?$pair@$$CBV?$basic_string@DU?$char_traits@D@std@@V?$allocator@D@2@@std@@V12@@2@@Z 100132a0 f i main.obj
 0001:00012470       ?erase@?$_Tree@V?$_Tmap_traits@V?$basic_string@DU?$char_traits@D@std@@V?$allocator@D@2@@std@@V12@U?$less@V?$basic_string@DU?$char_traits@D@std@@V?$allocator@D@2@@std@@@2@V?$allocator@U?$pair@$$CBV?$basic_string@DU?$char_traits@D@std@@V?$allocator@D@2@@std@@V12@@std@@@2@$0A@@std@@@std@@QAE?AViterator@12@Vconst_iterator@12@@Z 10013470 f i main.obj
 0001:00012c50       ??0out_of_range@std@@QAE@ABV?$basic_string@DU?$char_traits@D@std@@V?$allocator@D@2@@1@@Z 10013c50 f i main.obj
 0001:00012c80       ??1out_of_range@std@@UAE@XZ 10013c80 f i main.obj
 0001:00012ca0       ??_Gout_of_range@std@@UAEPAXI@Z 10013ca0 f i main.obj
 0001:00012ca0       ??_Eout_of_range@std@@UAEPAXI@Z 10013ca0 f i main.obj
 0001:00012cd0       ??0out_of_range@std@@QAE@ABV01@@Z 10013cd0 f i main.obj
 0001:00012d00       ?clear@?$_Tree@V?$_Tmap_traits@V?$basic_string@DU?$char_traits@D@std@@V?$allocator@D@2@@std@@V12@U?$less@V?$basic_string@DU?$char_traits@D@std@@V?$allocator@D@2@@std@@@2@V?$allocator@U?$pair@$$CBV?$basic_string@DU?$char_traits@D@std@@V?$allocator@D@2@@std@@V12@@std@@@2@$0A@@std@@@std@@QAEXXZ 10013d00 f i main.obj
 0001:00012d60       ?_Copy@?$_Tree@V?$_Tmap_traits@V?$basic_string@DU?$char_traits@D@std@@V?$allocator@D@2@@std@@V12@U?$less@V?$basic_string@DU?$char_traits@D@std@@V?$allocator@D@2@@std@@@2@V?$allocator@U?$pair@$$CBV?$basic_string@DU?$char_traits@D@std@@V?$allocator@D@2@@std@@V12@@std@@@2@$0A@@std@@@std@@IAEPAU_Node@?$_Tree_nod@V?$_Tmap_traits@V?$basic_string@DU?$char_traits@D@std@@V?$allocator@D@2@@std@@V12@U?$less@V?$basic_string@DU?$char_traits@D@std@@V?$allocator@D@2@@std@@@2@V?$allocator@U?$pair@$$CBV?$basic_string@DU?$char_traits@D@std@@V?$allocator@D@2@@std@@V12@@std@@@2@$0A@@std@@@2@PAU342@0@Z 10013d60 f i main.obj
 0001:00012ed0       ?_Insert@?$_Tree@V?$_Tmap_traits@V?$basic_string@DU?$char_traits@D@std@@V?$allocator@D@2@@std@@V12@U?$less@V?$basic_string@DU?$char_traits@D@std@@V?$allocator@D@2@@std@@@2@V?$allocator@U?$pair@$$CBV?$basic_string@DU?$char_traits@D@std@@V?$allocator@D@2@@std@@V12@@std@@@2@$0A@@std@@@std@@IAE?AViterator@12@_NPAU_Node@?$_Tree_nod@V?$_Tmap_traits@V?$basic_string@DU?$char_traits@D@std@@V?$allocator@D@2@@std@@V12@U?$less@V?$basic_string@DU?$char_traits@D@std@@V?$allocator@D@2@@std@@@2@V?$allocator@U?$pair@$$CBV?$basic_string@DU?$char_traits@D@std@@V?$allocator@D@2@@std@@V12@@std@@@2@$0A@@std@@@2@ABU?$pair@$$CBV?$basic_string@DU?$char_traits@D@std@@V?$allocator@D@2@@std@@V12@@2@@Z 10013ed0 f i main.obj
 0001:00013350       ?_Lbound@?$_Tree@V?$_Tmap_traits@V?$basic_string@DU?$char_traits@D@std@@V?$allocator@D@2@@std@@V12@U?$less@V?$basic_string@DU?$char_traits@D@std@@V?$allocator@D@2@@std@@@2@V?$allocator@U?$pair@$$CBV?$basic_string@DU?$char_traits@D@std@@V?$allocator@D@2@@std@@V12@@std@@@2@$0A@@std@@@std@@IBEPAU_Node@?$_Tree_nod@V?$_Tmap_traits@V?$basic_string@DU?$char_traits@D@std@@V?$allocator@D@2@@std@@V12@U?$less@V?$basic_string@DU?$char_traits@D@std@@V?$allocator@D@2@@std@@@2@V?$allocator@U?$pair@$$CBV?$basic_string@DU?$char_traits@D@std@@V?$allocator@D@2@@std@@V12@@std@@@2@$0A@@std@@@2@ABV?$basic_string@DU?$char_traits@D@std@@V?$allocator@D@2@@2@@Z 10014350 f i main.obj
 0001:000133e0       ?_Lmost@?$_Tree@V?$_Tmap_traits@V?$basic_string@DU?$char_traits@D@std@@V?$allocator@D@2@@std@@V12@U?$less@V?$basic_string@DU?$char_traits@D@std@@V?$allocator@D@2@@std@@@2@V?$allocator@U?$pair@$$CBV?$basic_string@DU?$char_traits@D@std@@V?$allocator@D@2@@std@@V12@@std@@@2@$0A@@std@@@std@@IBEAAPAU_Node@?$_Tree_nod@V?$_Tmap_traits@V?$basic_string@DU?$char_traits@D@std@@V?$allocator@D@2@@std@@V12@U?$less@V?$basic_string@DU?$char_traits@D@std@@V?$allocator@D@2@@std@@@2@V?$allocator@U?$pair@$$CBV?$basic_string@DU?$char_traits@D@std@@V?$allocator@D@2@@std@@V12@@std@@@2@$0A@@std@@@2@XZ 100143e0 f i main.obj
 0001:00013400       ?_Max@?$_Tree@V?$_Tmap_traits@V?$basic_string@DU?$char_traits@D@std@@V?$allocator@D@2@@std@@V12@U?$less@V?$basic_string@DU?$char_traits@D@std@@V?$allocator@D@2@@std@@@2@V?$allocator@U?$pair@$$CBV?$basic_string@DU?$char_traits@D@std@@V?$allocator@D@2@@std@@V12@@std@@@2@$0A@@std@@@std@@KAPAU_Node@?$_Tree_nod@V?$_Tmap_traits@V?$basic_string@DU?$char_traits@D@std@@V?$allocator@D@2@@std@@V12@U?$less@V?$basic_string@DU?$char_traits@D@std@@V?$allocator@D@2@@std@@@2@V?$allocator@U?$pair@$$CBV?$basic_string@DU?$char_traits@D@std@@V?$allocator@D@2@@std@@V12@@std@@@2@$0A@@std@@@2@PAU342@@Z 10014400 f i main.obj
 0001:00013440       ?_Min@?$_Tree@V?$_Tmap_traits@V?$basic_string@DU?$char_traits@D@std@@V?$allocator@D@2@@std@@V12@U?$less@V?$basic_string@DU?$char_traits@D@std@@V?$allocator@D@2@@std@@@2@V?$allocator@U?$pair@$$CBV?$basic_string@DU?$char_traits@D@std@@V?$allocator@D@2@@std@@V12@@std@@@2@$0A@@std@@@std@@KAPAU_Node@?$_Tree_nod@V?$_Tmap_traits@V?$basic_string@DU?$char_traits@D@std@@V?$allocator@D@2@@std@@V12@U?$less@V?$basic_string@DU?$char_traits@D@std@@V?$allocator@D@2@@std@@@2@V?$allocator@U?$pair@$$CBV?$basic_string@DU?$char_traits@D@std@@V?$allocator@D@2@@std@@V12@@std@@@2@$0A@@std@@@2@PAU342@@Z 10014440 f i main.obj
 0001:00013480       ?_Rmost@?$_Tree@V?$_Tmap_traits@V?$basic_string@DU?$char_traits@D@std@@V?$allocator@D@2@@std@@V12@U?$less@V?$basic_string@DU?$char_traits@D@std@@V?$allocator@D@2@@std@@@2@V?$allocator@U?$pair@$$CBV?$basic_string@DU?$char_traits@D@std@@V?$allocator@D@2@@std@@V12@@std@@@2@$0A@@std@@@std@@IBEAAPAU_Node@?$_Tree_nod@V?$_Tmap_traits@V?$basic_string@DU?$char_traits@D@std@@V?$allocator@D@2@@std@@V12@U?$less@V?$basic_string@DU?$char_traits@D@std@@V?$allocator@D@2@@std@@@2@V?$allocator@U?$pair@$$CBV?$basic_string@DU?$char_traits@D@std@@V?$allocator@D@2@@std@@V12@@std@@@2@$0A@@std@@@2@XZ 10014480 f i main.obj
 0001:000134a0       ?_Root@?$_Tree@V?$_Tmap_traits@V?$basic_string@DU?$char_traits@D@std@@V?$allocator@D@2@@std@@V12@U?$less@V?$basic_string@DU?$char_traits@D@std@@V?$allocator@D@2@@std@@@2@V?$allocator@U?$pair@$$CBV?$basic_string@DU?$char_traits@D@std@@V?$allocator@D@2@@std@@V12@@std@@@2@$0A@@std@@@std@@IBEAAPAU_Node@?$_Tree_nod@V?$_Tmap_traits@V?$basic_string@DU?$char_traits@D@std@@V?$allocator@D@2@@std@@V12@U?$less@V?$basic_string@DU?$char_traits@D@std@@V?$allocator@D@2@@std@@@2@V?$allocator@U?$pair@$$CBV?$basic_string@DU?$char_traits@D@std@@V?$allocator@D@2@@std@@V12@@std@@@2@$0A@@std@@@2@XZ 100144a0 f i main.obj
 0001:000134c0       ?_Buynode@?$_Tree@V?$_Tmap_traits@V?$basic_string@DU?$char_traits@D@std@@V?$allocator@D@2@@std@@V12@U?$less@V?$basic_string@DU?$char_traits@D@std@@V?$allocator@D@2@@std@@@2@V?$allocator@U?$pair@$$CBV?$basic_string@DU?$char_traits@D@std@@V?$allocator@D@2@@std@@V12@@std@@@2@$0A@@std@@@std@@IAEPAU_Node@?$_Tree_nod@V?$_Tmap_traits@V?$basic_string@DU?$char_traits@D@std@@V?$allocator@D@2@@std@@V12@U?$less@V?$basic_string@DU?$char_traits@D@std@@V?$allocator@D@2@@std@@@2@V?$allocator@U?$pair@$$CBV?$basic_string@DU?$char_traits@D@std@@V?$allocator@D@2@@std@@V12@@std@@@2@$0A@@std@@@2@XZ 100144c0 f i main.obj
 0001:00013640       ??0?$_Tree_ptr@V?$_Tmap_traits@V?$basic_string@DU?$char_traits@D@std@@V?$allocator@D@2@@std@@V12@U?$less@V?$basic_string@DU?$char_traits@D@std@@V?$allocator@D@2@@std@@@2@V?$allocator@U?$pair@$$CBV?$basic_string@DU?$char_traits@D@std@@V?$allocator@D@2@@std@@V12@@std@@@2@$0A@@std@@@std@@IAE@ABU?$less@V?$basic_string@DU?$char_traits@D@std@@V?$allocator@D@2@@std@@@1@V?$allocator@U?$pair@$$CBV?$basic_string@DU?$char_traits@D@std@@V?$allocator@D@2@@std@@V12@@std@@@1@@Z 10014640 f i main.obj
 0001:00013680       ?_Kfn@?$_Tmap_traits@V?$basic_string@DU?$char_traits@D@std@@V?$allocator@D@2@@std@@V12@U?$less@V?$basic_string@DU?$char_traits@D@std@@V?$allocator@D@2@@std@@@2@V?$allocator@U?$pair@$$CBV?$basic_string@DU?$char_traits@D@std@@V?$allocator@D@2@@std@@V12@@std@@@2@$0A@@std@@SAABV?$basic_string@DU?$char_traits@D@std@@V?$allocator@D@2@@2@ABU?$pair@$$CBV?$basic_string@DU?$char_traits@D@std@@V?$allocator@D@2@@std@@V12@@2@@Z 10014680 f i main.obj
 0001:00013690       ??0?$allocator@U?$pair@$$CBV?$basic_string@DU?$char_traits@D@std@@V?$allocator@D@2@@std@@V12@@std@@@std@@QAE@ABV01@@Z 10014690 f i main.obj
 0001:000136a0       ?deallocate@?$allocator@U_Node@?$_Tree_nod@V?$_Tmap_traits@V?$basic_string@DU?$char_traits@D@std@@V?$allocator@D@2@@std@@V12@U?$less@V?$basic_string@DU?$char_traits@D@std@@V?$allocator@D@2@@std@@@2@V?$allocator@U?$pair@$$CBV?$basic_string@DU?$char_traits@D@std@@V?$allocator@D@2@@std@@V12@@std@@@2@$0A@@std@@@std@@@std@@QAEXPAU_Node@?$_Tree_nod@V?$_Tmap_traits@V?$basic_string@DU?$char_traits@D@std@@V?$allocator@D@2@@std@@V12@U?$less@V?$basic_string@DU?$char_traits@D@std@@V?$allocator@D@2@@std@@@2@V?$allocator@U?$pair@$$CBV?$basic_string@DU?$char_traits@D@std@@V?$allocator@D@2@@std@@V12@@std@@@2@$0A@@std@@@2@I@Z 100146a0 f i main.obj
 0001:000136c0       ?destroy@?$allocator@PAU_Node@?$_Tree_nod@V?$_Tmap_traits@V?$basic_string@DU?$char_traits@D@std@@V?$allocator@D@2@@std@@V12@U?$less@V?$basic_string@DU?$char_traits@D@std@@V?$allocator@D@2@@std@@@2@V?$allocator@U?$pair@$$CBV?$basic_string@DU?$char_traits@D@std@@V?$allocator@D@2@@std@@V12@@std@@@2@$0A@@std@@@std@@@std@@QAEXPAPAU_Node@?$_Tree_nod@V?$_Tmap_traits@V?$basic_string@DU?$char_traits@D@std@@V?$allocator@D@2@@std@@V12@U?$less@V?$basic_string@DU?$char_traits@D@std@@V?$allocator@D@2@@std@@@2@V?$allocator@U?$pair@$$CBV?$basic_string@DU?$char_traits@D@std@@V?$allocator@D@2@@std@@V12@@std@@@2@$0A@@std@@@2@@Z 100146c0 f i main.obj
 0001:000136e0       ?max_size@?$vector@HV?$allocator@H@std@@@std@@QBEIXZ 100146e0 f i main.obj
 0001:00013700       ?_Destroy@?$vector@HV?$allocator@H@std@@@std@@IAEXPAH0@Z 10014700 f i main.obj
 0001:00013730       ?_Insert_n@?$vector@HV?$allocator@H@std@@@std@@IAEXV?$_Vector_const_iterator@HV?$allocator@H@std@@@2@IABH@Z 10014730 f i main.obj
 0001:00013ae0       ?_Xlen@?$vector@HV?$allocator@H@std@@@std@@KAXXZ 10014ae0 f i main.obj
 0001:00013b60       ??0?$_Container_base_aux_alloc_real@V?$allocator@H@std@@@std@@IAE@V?$allocator@H@1@@Z 10014b60 f i main.obj
 0001:00013c20       ?deallocate@?$allocator@H@std@@QAEXPAHI@Z 10014c20 f i main.obj
 0001:00013c40       ?allocate@?$allocator@H@std@@QAEPAHI@Z 10014c40 f i main.obj
 0001:00013c60       ??G?$_Vector_const_iterator@IV?$allocator@I@std@@@std@@QBEHABV01@@Z 10014c60 f i main.obj
 0001:00013cb0       ?max_size@?$deque@V?$basic_string@DU?$char_traits@D@std@@V?$allocator@D@2@@std@@V?$allocator@V?$basic_string@DU?$char_traits@D@std@@V?$allocator@D@2@@std@@@2@@std@@QBEIXZ 10014cb0 f i main.obj
 0001:00013cd0       ?empty@?$deque@V?$basic_string@DU?$char_traits@D@std@@V?$allocator@D@2@@std@@V?$allocator@V?$basic_string@DU?$char_traits@D@std@@V?$allocator@D@2@@std@@@2@@std@@QBE_NXZ 10014cd0 f i main.obj
 0001:00013cf0       ?pop_back@?$deque@V?$basic_string@DU?$char_traits@D@std@@V?$allocator@D@2@@std@@V?$allocator@V?$basic_string@DU?$char_traits@D@std@@V?$allocator@D@2@@std@@@2@@std@@QAEXXZ 10014cf0 f i main.obj
 0001:00013d90       ?_Xlen@?$deque@V?$basic_string@DU?$char_traits@D@std@@V?$allocator@D@2@@std@@V?$allocator@V?$basic_string@DU?$char_traits@D@std@@V?$allocator@D@2@@std@@@2@@std@@KAXXZ 10014d90 f i main.obj
 0001:00013e10       ??0?$_Deque_map@V?$basic_string@DU?$char_traits@D@std@@V?$allocator@D@2@@std@@V?$allocator@V?$basic_string@DU?$char_traits@D@std@@V?$allocator@D@2@@std@@@2@@std@@IAE@V?$allocator@V?$basic_string@DU?$char_traits@D@std@@V?$allocator@D@2@@std@@@1@@Z 10014e10 f i main.obj
 0001:00013e50       ??0?$_Container_base_aux_alloc_real@V?$allocator@V?$basic_string@DU?$char_traits@D@std@@V?$allocator@D@2@@std@@@std@@@std@@IAE@V?$allocator@V?$basic_string@DU?$char_traits@D@std@@V?$allocator@D@2@@std@@@1@@Z 10014e50 f i main.obj
 0001:00013f10       ?deallocate@?$allocator@PAV?$basic_string@DU?$char_traits@D@std@@V?$allocator@D@2@@std@@@std@@QAEXPAPAV?$basic_string@DU?$char_traits@D@std@@V?$allocator@D@2@@2@I@Z 10014f10 f i main.obj
 0001:00013f30       ?allocate@?$allocator@PAV?$basic_string@DU?$char_traits@D@std@@V?$allocator@D@2@@std@@@std@@QAEPAPAV?$basic_string@DU?$char_traits@D@std@@V?$allocator@D@2@@2@I@Z 10014f30 f i main.obj
 0001:00013f50       ?destroy@?$allocator@PAV?$basic_string@DU?$char_traits@D@std@@V?$allocator@D@2@@std@@@std@@QAEXPAPAV?$basic_string@DU?$char_traits@D@std@@V?$allocator@D@2@@2@@Z 10014f50 f i main.obj
 0001:00013f70       ??0const_iterator@?$_Tree@V?$_Tmap_traits@V?$basic_string@DU?$char_traits@D@std@@V?$allocator@D@2@@std@@V12@U?$less@V?$basic_string@DU?$char_traits@D@std@@V?$allocator@D@2@@std@@@2@V?$allocator@U?$pair@$$CBV?$basic_string@DU?$char_traits@D@std@@V?$allocator@D@2@@std@@V12@@std@@@2@$0A@@std@@@std@@QAE@XZ 10014f70 f i main.obj
 0001:00013f90       ??0const_iterator@?$_Tree@V?$_Tmap_traits@V?$basic_string@DU?$char_traits@D@std@@V?$allocator@D@2@@std@@V12@U?$less@V?$basic_string@DU?$char_traits@D@std@@V?$allocator@D@2@@std@@@2@V?$allocator@U?$pair@$$CBV?$basic_string@DU?$char_traits@D@std@@V?$allocator@D@2@@std@@V12@@std@@@2@$0A@@std@@@std@@QAE@PAU_Node@?$_Tree_nod@V?$_Tmap_traits@V?$basic_string@DU?$char_traits@D@std@@V?$allocator@D@2@@std@@V12@U?$less@V?$basic_string@DU?$char_traits@D@std@@V?$allocator@D@2@@std@@@2@V?$allocator@U?$pair@$$CBV?$basic_string@DU?$char_traits@D@std@@V?$allocator@D@2@@std@@V12@@std@@@2@$0A@@std@@@2@PBV12@@Z 10014f90 f i main.obj
 0001:00013fd0       ?_Set_container@_Iterator_base_aux@std@@QAEXQBV_Container_base_aux@2@@Z 10014fd0 f i main.obj
 0001:00013ff0       ??Econst_iterator@?$_Tree@V?$_Tmap_traits@V?$basic_string@DU?$char_traits@D@std@@V?$allocator@D@2@@std@@V12@U?$less@V?$basic_string@DU?$char_traits@D@std@@V?$allocator@D@2@@std@@@2@V?$allocator@U?$pair@$$CBV?$basic_string@DU?$char_traits@D@std@@V?$allocator@D@2@@std@@V12@@std@@@2@$0A@@std@@@std@@QAEAAV012@XZ 10014ff0 f i main.obj
 0001:00014010       ??Econst_iterator@?$_Tree@V?$_Tmap_traits@V?$basic_string@DU?$char_traits@D@std@@V?$allocator@D@2@@std@@V12@U?$less@V?$basic_string@DU?$char_traits@D@std@@V?$allocator@D@2@@std@@@2@V?$allocator@U?$pair@$$CBV?$basic_string@DU?$char_traits@D@std@@V?$allocator@D@2@@std@@V12@@std@@@2@$0A@@std@@@std@@QAE?AV012@H@Z 10015010 f i main.obj
 0001:00014050       ??Fconst_iterator@?$_Tree@V?$_Tmap_traits@V?$basic_string@DU?$char_traits@D@std@@V?$allocator@D@2@@std@@V12@U?$less@V?$basic_string@DU?$char_traits@D@std@@V?$allocator@D@2@@std@@@2@V?$allocator@U?$pair@$$CBV?$basic_string@DU?$char_traits@D@std@@V?$allocator@D@2@@std@@V12@@std@@@2@$0A@@std@@@std@@QAEAAV012@XZ 10015050 f i main.obj
 0001:00014070       ??0?$allocator@PAVGeometry@osg@@@std@@QAE@ABV01@@Z 10015070 f i main.obj
 0001:00014080       ?_Prevnode@?$list@PAVGeometry@osg@@V?$allocator@PAVGeometry@osg@@@std@@@std@@KAAAPAU_Node@?$_List_nod@PAVGeometry@osg@@V?$allocator@PAVGeometry@osg@@@std@@@2@PAU342@@Z 10015080 f i main.obj
 0001:00014090       ?_Myval@?$list@PAVGeometry@osg@@V?$allocator@PAVGeometry@osg@@@std@@@std@@KAAAPAVGeometry@osg@@PAU_Node@?$_List_nod@PAVGeometry@osg@@V?$allocator@PAVGeometry@osg@@@std@@@2@@Z 10015090 f i main.obj
 0001:000140a0       ?clear@?$list@PAVGeometry@osg@@V?$allocator@PAVGeometry@osg@@@std@@@std@@QAEXXZ 100150a0 f i main.obj
 0001:00014140       ?_Buynode@?$list@PAVGeometry@osg@@V?$allocator@PAVGeometry@osg@@@std@@@std@@IAEPAU_Node@?$_List_nod@PAVGeometry@osg@@V?$allocator@PAVGeometry@osg@@@std@@@2@PAU342@0ABQAVGeometry@osg@@@Z 10015140 f i main.obj
 0001:00014290       ?_Incsize@?$list@PAVGeometry@osg@@V?$allocator@PAVGeometry@osg@@@std@@@std@@IAEXI@Z 10015290 f i main.obj
 0001:00014330       ??0?$_List_ptr@PAVGeometry@osg@@V?$allocator@PAVGeometry@osg@@@std@@@std@@IAE@V?$allocator@PAVGeometry@osg@@@1@@Z 10015330 f i main.obj
 0001:00014370       ?deallocate@?$allocator@U_Node@?$_List_nod@PAVGeometry@osg@@V?$allocator@PAVGeometry@osg@@@std@@@std@@@std@@QAEXPAU_Node@?$_List_nod@PAVGeometry@osg@@V?$allocator@PAVGeometry@osg@@@std@@@2@I@Z 10015370 f i main.obj
 0001:00014390       ?allocate@?$allocator@U_Node@?$_List_nod@PAVGeometry@osg@@V?$allocator@PAVGeometry@osg@@@std@@@std@@@std@@QAEPAU_Node@?$_List_nod@PAVGeometry@osg@@V?$allocator@PAVGeometry@osg@@@std@@@2@I@Z 10015390 f i main.obj
 0001:000143b0       ?construct@?$allocator@PAU_Node@?$_List_nod@PAVGeometry@osg@@V?$allocator@PAVGeometry@osg@@@std@@@std@@@std@@QAEXPAPAU_Node@?$_List_nod@PAVGeometry@osg@@V?$allocator@PAVGeometry@osg@@@std@@@2@ABQAU342@@Z 100153b0 f i main.obj
 0001:000143d0       ?destroy@?$allocator@PAU_Node@?$_List_nod@PAVGeometry@osg@@V?$allocator@PAVGeometry@osg@@@std@@@std@@@std@@QAEXPAPAU_Node@?$_List_nod@PAVGeometry@osg@@V?$allocator@PAVGeometry@osg@@@std@@@2@@Z 100153d0 f i main.obj
 0001:000143f0       ??0?$_Const_iterator@$00@?$list@PAVGeometry@osg@@V?$allocator@PAVGeometry@osg@@@std@@@std@@QAE@PAU_Node@?$_List_nod@PAVGeometry@osg@@V?$allocator@PAVGeometry@osg@@@std@@@2@PBV12@@Z 100153f0 f i main.obj
 0001:00014440       ??E?$_Const_iterator@$00@?$list@PAVGeometry@osg@@V?$allocator@PAVGeometry@osg@@@std@@@std@@QAEAAV012@XZ 10015440 f i main.obj
 0001:000144b0       ?_Mynode@?$_Const_iterator@$00@?$list@PAVGeometry@osg@@V?$allocator@PAVGeometry@osg@@@std@@@std@@QBEPAU_Node@?$_List_nod@PAVGeometry@osg@@V?$allocator@PAVGeometry@osg@@@std@@@3@XZ 100154b0 f i main.obj
 0001:000144d0       ?_Prevnode@?$list@VReadResult@ReaderWriter@osgDB@@V?$allocator@VReadResult@ReaderWriter@osgDB@@@std@@@std@@KAAAPAU_Node@?$_List_nod@VReadResult@ReaderWriter@osgDB@@V?$allocator@VReadResult@ReaderWriter@osgDB@@@std@@@2@PAU342@@Z 100154d0 f i main.obj
 0001:000144e0       ?clear@?$list@VReadResult@ReaderWriter@osgDB@@V?$allocator@VReadResult@ReaderWriter@osgDB@@@std@@@std@@QAEXXZ 100154e0 f i main.obj
 0001:00014580       ?_Buynode@?$list@VReadResult@ReaderWriter@osgDB@@V?$allocator@VReadResult@ReaderWriter@osgDB@@@std@@@std@@IAEPAU_Node@?$_List_nod@VReadResult@ReaderWriter@osgDB@@V?$allocator@VReadResult@ReaderWriter@osgDB@@@std@@@2@PAU342@0ABVReadResult@ReaderWriter@osgDB@@@Z 10015580 f i main.obj
 0001:000146d0       ?_Incsize@?$list@VReadResult@ReaderWriter@osgDB@@V?$allocator@VReadResult@ReaderWriter@osgDB@@@std@@@std@@IAEXI@Z 100156d0 f i main.obj
 0001:00014770       ??0?$_List_ptr@VReadResult@ReaderWriter@osgDB@@V?$allocator@VReadResult@ReaderWriter@osgDB@@@std@@@std@@IAE@V?$allocator@VReadResult@ReaderWriter@osgDB@@@1@@Z 10015770 f i main.obj
 0001:000147b0       ??0?$allocator@VReadResult@ReaderWriter@osgDB@@@std@@QAE@ABV01@@Z 100157b0 f i main.obj
 0001:000147c0       ?deallocate@?$allocator@U_Node@?$_List_nod@VReadResult@ReaderWriter@osgDB@@V?$allocator@VReadResult@ReaderWriter@osgDB@@@std@@@std@@@std@@QAEXPAU_Node@?$_List_nod@VReadResult@ReaderWriter@osgDB@@V?$allocator@VReadResult@ReaderWriter@osgDB@@@std@@@2@I@Z 100157c0 f i main.obj
 0001:000147e0       ?allocate@?$allocator@U_Node@?$_List_nod@VReadResult@ReaderWriter@osgDB@@V?$allocator@VReadResult@ReaderWriter@osgDB@@@std@@@std@@@std@@QAEPAU_Node@?$_List_nod@VReadResult@ReaderWriter@osgDB@@V?$allocator@VReadResult@ReaderWriter@osgDB@@@std@@@2@I@Z 100157e0 f i main.obj
 0001:00014800       ?construct@?$allocator@PAU_Node@?$_List_nod@VReadResult@ReaderWriter@osgDB@@V?$allocator@VReadResult@ReaderWriter@osgDB@@@std@@@std@@@std@@QAEXPAPAU_Node@?$_List_nod@VReadResult@ReaderWriter@osgDB@@V?$allocator@VReadResult@ReaderWriter@osgDB@@@std@@@2@ABQAU342@@Z 10015800 f i main.obj
 0001:00014820       ?destroy@?$allocator@PAU_Node@?$_List_nod@VReadResult@ReaderWriter@osgDB@@V?$allocator@VReadResult@ReaderWriter@osgDB@@@std@@@std@@@std@@QAEXPAPAU_Node@?$_List_nod@VReadResult@ReaderWriter@osgDB@@V?$allocator@VReadResult@ReaderWriter@osgDB@@@std@@@2@@Z 10015820 f i main.obj
 0001:00014840       ??0?$_Const_iterator@$00@?$list@VReadResult@ReaderWriter@osgDB@@V?$allocator@VReadResult@ReaderWriter@osgDB@@@std@@@std@@QAE@PAU_Node@?$_List_nod@VReadResult@ReaderWriter@osgDB@@V?$allocator@VReadResult@ReaderWriter@osgDB@@@std@@@2@PBV12@@Z 10015840 f i main.obj
 0001:00014890       ??D?$_Const_iterator@$00@?$list@VReadResult@ReaderWriter@osgDB@@V?$allocator@VReadResult@ReaderWriter@osgDB@@@std@@@std@@QBEABVReadResult@ReaderWriter@osgDB@@XZ 10015890 f i main.obj
 0001:000148f0       ??E?$_Const_iterator@$00@?$list@VReadResult@ReaderWriter@osgDB@@V?$allocator@VReadResult@ReaderWriter@osgDB@@@std@@@std@@QAEAAV012@XZ 100158f0 f i main.obj
 0001:00014960       ?_Mynode@?$_Const_iterator@$00@?$list@VReadResult@ReaderWriter@osgDB@@V?$allocator@VReadResult@ReaderWriter@osgDB@@@std@@@std@@QBEPAU_Node@?$_List_nod@VReadResult@ReaderWriter@osgDB@@V?$allocator@VReadResult@ReaderWriter@osgDB@@@std@@@3@XZ 10015960 f i main.obj
 0001:00014980       ?_Prevnode@?$list@V?$basic_string@DU?$char_traits@D@std@@V?$allocator@D@2@@std@@V?$allocator@V?$basic_string@DU?$char_traits@D@std@@V?$allocator@D@2@@std@@@2@@std@@KAAAPAU_Node@?$_List_nod@V?$basic_string@DU?$char_traits@D@std@@V?$allocator@D@2@@std@@V?$allocator@V?$basic_string@DU?$char_traits@D@std@@V?$allocator@D@2@@std@@@2@@2@PAU342@@Z 10015980 f i main.obj
 0001:00014990       ?clear@?$list@V?$basic_string@DU?$char_traits@D@std@@V?$allocator@D@2@@std@@V?$allocator@V?$basic_string@DU?$char_traits@D@std@@V?$allocator@D@2@@std@@@2@@std@@QAEXXZ 10015990 f i main.obj
 0001:00014a30       ?_Buynode@?$list@V?$basic_string@DU?$char_traits@D@std@@V?$allocator@D@2@@std@@V?$allocator@V?$basic_string@DU?$char_traits@D@std@@V?$allocator@D@2@@std@@@2@@std@@IAEPAU_Node@?$_List_nod@V?$basic_string@DU?$char_traits@D@std@@V?$allocator@D@2@@std@@V?$allocator@V?$basic_string@DU?$char_traits@D@std@@V?$allocator@D@2@@std@@@2@@2@PAU342@0ABV?$basic_string@DU?$char_traits@D@std@@V?$allocator@D@2@@2@@Z 10015a30 f i main.obj
 0001:00014b80       ?_Incsize@?$list@V?$basic_string@DU?$char_traits@D@std@@V?$allocator@D@2@@std@@V?$allocator@V?$basic_string@DU?$char_traits@D@std@@V?$allocator@D@2@@std@@@2@@std@@IAEXI@Z 10015b80 f i main.obj
 0001:00014c20       ??0?$_List_ptr@V?$basic_string@DU?$char_traits@D@std@@V?$allocator@D@2@@std@@V?$allocator@V?$basic_string@DU?$char_traits@D@std@@V?$allocator@D@2@@std@@@2@@std@@IAE@V?$allocator@V?$basic_string@DU?$char_traits@D@std@@V?$allocator@D@2@@std@@@1@@Z 10015c20 f i main.obj
 0001:00014c60       ?deallocate@?$allocator@U_Node@?$_List_nod@V?$basic_string@DU?$char_traits@D@std@@V?$allocator@D@2@@std@@V?$allocator@V?$basic_string@DU?$char_traits@D@std@@V?$allocator@D@2@@std@@@2@@std@@@std@@QAEXPAU_Node@?$_List_nod@V?$basic_string@DU?$char_traits@D@std@@V?$allocator@D@2@@std@@V?$allocator@V?$basic_string@DU?$char_traits@D@std@@V?$allocator@D@2@@std@@@2@@2@I@Z 10015c60 f i main.obj
 0001:00014c80       ?allocate@?$allocator@U_Node@?$_List_nod@V?$basic_string@DU?$char_traits@D@std@@V?$allocator@D@2@@std@@V?$allocator@V?$basic_string@DU?$char_traits@D@std@@V?$allocator@D@2@@std@@@2@@std@@@std@@QAEPAU_Node@?$_List_nod@V?$basic_string@DU?$char_traits@D@std@@V?$allocator@D@2@@std@@V?$allocator@V?$basic_string@DU?$char_traits@D@std@@V?$allocator@D@2@@std@@@2@@2@I@Z 10015c80 f i main.obj
 0001:00014ca0       ?construct@?$allocator@PAU_Node@?$_List_nod@V?$basic_string@DU?$char_traits@D@std@@V?$allocator@D@2@@std@@V?$allocator@V?$basic_string@DU?$char_traits@D@std@@V?$allocator@D@2@@std@@@2@@std@@@std@@QAEXPAPAU_Node@?$_List_nod@V?$basic_string@DU?$char_traits@D@std@@V?$allocator@D@2@@std@@V?$allocator@V?$basic_string@DU?$char_traits@D@std@@V?$allocator@D@2@@std@@@2@@2@ABQAU342@@Z 10015ca0 f i main.obj
 0001:00014cc0       ?destroy@?$allocator@PAU_Node@?$_List_nod@V?$basic_string@DU?$char_traits@D@std@@V?$allocator@D@2@@std@@V?$allocator@V?$basic_string@DU?$char_traits@D@std@@V?$allocator@D@2@@std@@@2@@std@@@std@@QAEXPAPAU_Node@?$_List_nod@V?$basic_string@DU?$char_traits@D@std@@V?$allocator@D@2@@std@@V?$allocator@V?$basic_string@DU?$char_traits@D@std@@V?$allocator@D@2@@std@@@2@@2@@Z 10015cc0 f i main.obj
 0001:00014ce0       ??0?$_Const_iterator@$00@?$list@V?$basic_string@DU?$char_traits@D@std@@V?$allocator@D@2@@std@@V?$allocator@V?$basic_string@DU?$char_traits@D@std@@V?$allocator@D@2@@std@@@2@@std@@QAE@PAU_Node@?$_List_nod@V?$basic_string@DU?$char_traits@D@std@@V?$allocator@D@2@@std@@V?$allocator@V?$basic_string@DU?$char_traits@D@std@@V?$allocator@D@2@@std@@@2@@2@PBV12@@Z 10015ce0 f i main.obj
 0001:00014d30       ?_Mynode@?$_Const_iterator@$00@?$list@V?$basic_string@DU?$char_traits@D@std@@V?$allocator@D@2@@std@@V?$allocator@V?$basic_string@DU?$char_traits@D@std@@V?$allocator@D@2@@std@@@2@@std@@QBEPAU_Node@?$_List_nod@V?$basic_string@DU?$char_traits@D@std@@V?$allocator@D@2@@std@@V?$allocator@V?$basic_string@DU?$char_traits@D@std@@V?$allocator@D@2@@std@@@2@@3@XZ 10015d30 f i main.obj
 0001:00014d50       ?_Prevnode@?$list@PAVZipEntry@@V?$allocator@PAVZipEntry@@@std@@@std@@KAAAPAU_Node@?$_List_nod@PAVZipEntry@@V?$allocator@PAVZipEntry@@@std@@@2@PAU342@@Z 10015d50 f i main.obj
 0001:00014d60       ?_Myval@?$list@PAVZipEntry@@V?$allocator@PAVZipEntry@@@std@@@std@@KAAAPAVZipEntry@@PAU_Node@?$_List_nod@PAVZipEntry@@V?$allocator@PAVZipEntry@@@std@@@2@@Z 10015d60 f i main.obj
 0001:00014d70       ?clear@?$list@PAVZipEntry@@V?$allocator@PAVZipEntry@@@std@@@std@@QAEXXZ 10015d70 f i main.obj
 0001:00014e10       ?_Buynode@?$list@PAVZipEntry@@V?$allocator@PAVZipEntry@@@std@@@std@@IAEPAU_Node@?$_List_nod@PAVZipEntry@@V?$allocator@PAVZipEntry@@@std@@@2@PAU342@0ABQAVZipEntry@@@Z 10015e10 f i main.obj
 0001:00014f60       ?_Incsize@?$list@PAVZipEntry@@V?$allocator@PAVZipEntry@@@std@@@std@@IAEXI@Z 10015f60 f i main.obj
 0001:00015000       ??0?$_List_ptr@PAVZipEntry@@V?$allocator@PAVZipEntry@@@std@@@std@@IAE@V?$allocator@PAVZipEntry@@@1@@Z 10016000 f i main.obj
 0001:00015040       ??0?$allocator@PAVZipEntry@@@std@@QAE@ABV01@@Z 10016040 f i main.obj
 0001:00015050       ?deallocate@?$allocator@U_Node@?$_List_nod@PAVZipEntry@@V?$allocator@PAVZipEntry@@@std@@@std@@@std@@QAEXPAU_Node@?$_List_nod@PAVZipEntry@@V?$allocator@PAVZipEntry@@@std@@@2@I@Z 10016050 f i main.obj
 0001:00015070       ?allocate@?$allocator@U_Node@?$_List_nod@PAVZipEntry@@V?$allocator@PAVZipEntry@@@std@@@std@@@std@@QAEPAU_Node@?$_List_nod@PAVZipEntry@@V?$allocator@PAVZipEntry@@@std@@@2@I@Z 10016070 f i main.obj
 0001:00015090       ?construct@?$allocator@PAU_Node@?$_List_nod@PAVZipEntry@@V?$allocator@PAVZipEntry@@@std@@@std@@@std@@QAEXPAPAU_Node@?$_List_nod@PAVZipEntry@@V?$allocator@PAVZipEntry@@@std@@@2@ABQAU342@@Z 10016090 f i main.obj
 0001:000150b0       ?destroy@?$allocator@PAU_Node@?$_List_nod@PAVZipEntry@@V?$allocator@PAVZipEntry@@@std@@@std@@@std@@QAEXPAPAU_Node@?$_List_nod@PAVZipEntry@@V?$allocator@PAVZipEntry@@@std@@@2@@Z 100160b0 f i main.obj
 0001:000150d0       ??0?$_Const_iterator@$00@?$list@PAVZipEntry@@V?$allocator@PAVZipEntry@@@std@@@std@@QAE@PAU_Node@?$_List_nod@PAVZipEntry@@V?$allocator@PAVZipEntry@@@std@@@2@PBV12@@Z 100160d0 f i main.obj
 0001:00015120       ??E?$_Const_iterator@$00@?$list@PAVZipEntry@@V?$allocator@PAVZipEntry@@@std@@@std@@QAEAAV012@XZ 10016120 f i main.obj
 0001:00015190       ?_Mynode@?$_Const_iterator@$00@?$list@PAVZipEntry@@V?$allocator@PAVZipEntry@@@std@@@std@@QBEPAU_Node@?$_List_nod@PAVZipEntry@@V?$allocator@PAVZipEntry@@@std@@@3@XZ 10016190 f i main.obj
 0001:000151b0       ?_Prevnode@?$list@U?$pair@V?$basic_string@DU?$char_traits@D@std@@V?$allocator@D@2@@std@@V12@@std@@V?$allocator@U?$pair@V?$basic_string@DU?$char_traits@D@std@@V?$allocator@D@2@@std@@V12@@std@@@2@@std@@KAAAPAU_Node@?$_List_nod@U?$pair@V?$basic_string@DU?$char_traits@D@std@@V?$allocator@D@2@@std@@V12@@std@@V?$allocator@U?$pair@V?$basic_string@DU?$char_traits@D@std@@V?$allocator@D@2@@std@@V12@@std@@@2@@2@PAU342@@Z 100161b0 f i main.obj
 0001:000151c0       ?_Make_iter@?$list@U?$pair@V?$basic_string@DU?$char_traits@D@std@@V?$allocator@D@2@@std@@V12@@std@@V?$allocator@U?$pair@V?$basic_string@DU?$char_traits@D@std@@V?$allocator@D@2@@std@@V12@@std@@@2@@std@@QBE?AV?$_Iterator@$00@12@V?$_Const_iterator@$00@12@@Z 100161c0 f i main.obj
 0001:000151e0       ?clear@?$list@U?$pair@V?$basic_string@DU?$char_traits@D@std@@V?$allocator@D@2@@std@@V12@@std@@V?$allocator@U?$pair@V?$basic_string@DU?$char_traits@D@std@@V?$allocator@D@2@@std@@V12@@std@@@2@@std@@QAEXXZ 100161e0 f i main.obj
 0001:00015280       ?_Buynode@?$list@U?$pair@V?$basic_string@DU?$char_traits@D@std@@V?$allocator@D@2@@std@@V12@@std@@V?$allocator@U?$pair@V?$basic_string@DU?$char_traits@D@std@@V?$allocator@D@2@@std@@V12@@std@@@2@@std@@IAEPAU_Node@?$_List_nod@U?$pair@V?$basic_string@DU?$char_traits@D@std@@V?$allocator@D@2@@std@@V12@@std@@V?$allocator@U?$pair@V?$basic_string@DU?$char_traits@D@std@@V?$allocator@D@2@@std@@V12@@std@@@2@@2@PAU342@0ABU?$pair@V?$basic_string@DU?$char_traits@D@std@@V?$allocator@D@2@@std@@V12@@2@@Z 10016280 f i main.obj
 0001:000153d0       ?_Incsize@?$list@U?$pair@V?$basic_string@DU?$char_traits@D@std@@V?$allocator@D@2@@std@@V12@@std@@V?$allocator@U?$pair@V?$basic_string@DU?$char_traits@D@std@@V?$allocator@D@2@@std@@V12@@std@@@2@@std@@IAEXI@Z 100163d0 f i main.obj
 0001:00015470       ??0?$_List_ptr@U?$pair@V?$basic_string@DU?$char_traits@D@std@@V?$allocator@D@2@@std@@V12@@std@@V?$allocator@U?$pair@V?$basic_string@DU?$char_traits@D@std@@V?$allocator@D@2@@std@@V12@@std@@@2@@std@@IAE@V?$allocator@U?$pair@V?$basic_string@DU?$char_traits@D@std@@V?$allocator@D@2@@std@@V12@@std@@@1@@Z 10016470 f i main.obj
 0001:000154b0       ??0?$allocator@U?$pair@V?$basic_string@DU?$char_traits@D@std@@V?$allocator@D@2@@std@@V12@@std@@@std@@QAE@ABV01@@Z 100164b0 f i main.obj
 0001:000154c0       ?deallocate@?$allocator@U_Node@?$_List_nod@U?$pair@V?$basic_string@DU?$char_traits@D@std@@V?$allocator@D@2@@std@@V12@@std@@V?$allocator@U?$pair@V?$basic_string@DU?$char_traits@D@std@@V?$allocator@D@2@@std@@V12@@std@@@2@@std@@@std@@QAEXPAU_Node@?$_List_nod@U?$pair@V?$basic_string@DU?$char_traits@D@std@@V?$allocator@D@2@@std@@V12@@std@@V?$allocator@U?$pair@V?$basic_string@DU?$char_traits@D@std@@V?$allocator@D@2@@std@@V12@@std@@@2@@2@I@Z 100164c0 f i main.obj
 0001:000154e0       ?allocate@?$allocator@U_Node@?$_List_nod@U?$pair@V?$basic_string@DU?$char_traits@D@std@@V?$allocator@D@2@@std@@V12@@std@@V?$allocator@U?$pair@V?$basic_string@DU?$char_traits@D@std@@V?$allocator@D@2@@std@@V12@@std@@@2@@std@@@std@@QAEPAU_Node@?$_List_nod@U?$pair@V?$basic_string@DU?$char_traits@D@std@@V?$allocator@D@2@@std@@V12@@std@@V?$allocator@U?$pair@V?$basic_string@DU?$char_traits@D@std@@V?$allocator@D@2@@std@@V12@@std@@@2@@2@I@Z 100164e0 f i main.obj
 0001:00015500       ?destroy@?$allocator@U_Node@?$_List_nod@U?$pair@V?$basic_string@DU?$char_traits@D@std@@V?$allocator@D@2@@std@@V12@@std@@V?$allocator@U?$pair@V?$basic_string@DU?$char_traits@D@std@@V?$allocator@D@2@@std@@V12@@std@@@2@@std@@@std@@QAEXPAU_Node@?$_List_nod@U?$pair@V?$basic_string@DU?$char_traits@D@std@@V?$allocator@D@2@@std@@V12@@std@@V?$allocator@U?$pair@V?$basic_string@DU?$char_traits@D@std@@V?$allocator@D@2@@std@@V12@@std@@@2@@2@@Z 10016500 f i main.obj
 0001:00015520       ?construct@?$allocator@PAU_Node@?$_List_nod@U?$pair@V?$basic_string@DU?$char_traits@D@std@@V?$allocator@D@2@@std@@V12@@std@@V?$allocator@U?$pair@V?$basic_string@DU?$char_traits@D@std@@V?$allocator@D@2@@std@@V12@@std@@@2@@std@@@std@@QAEXPAPAU_Node@?$_List_nod@U?$pair@V?$basic_string@DU?$char_traits@D@std@@V?$allocator@D@2@@std@@V12@@std@@V?$allocator@U?$pair@V?$basic_string@DU?$char_traits@D@std@@V?$allocator@D@2@@std@@V12@@std@@@2@@2@ABQAU342@@Z 10016520 f i main.obj
 0001:00015540       ?destroy@?$allocator@PAU_Node@?$_List_nod@U?$pair@V?$basic_string@DU?$char_traits@D@std@@V?$allocator@D@2@@std@@V12@@std@@V?$allocator@U?$pair@V?$basic_string@DU?$char_traits@D@std@@V?$allocator@D@2@@std@@V12@@std@@@2@@std@@@std@@QAEXPAPAU_Node@?$_List_nod@U?$pair@V?$basic_string@DU?$char_traits@D@std@@V?$allocator@D@2@@std@@V12@@std@@V?$allocator@U?$pair@V?$basic_string@DU?$char_traits@D@std@@V?$allocator@D@2@@std@@V12@@std@@@2@@2@@Z 10016540 f i main.obj
 0001:00015560       ??0?$_Const_iterator@$00@?$list@U?$pair@V?$basic_string@DU?$char_traits@D@std@@V?$allocator@D@2@@std@@V12@@std@@V?$allocator@U?$pair@V?$basic_string@DU?$char_traits@D@std@@V?$allocator@D@2@@std@@V12@@std@@@2@@std@@QAE@PAU_Node@?$_List_nod@U?$pair@V?$basic_string@DU?$char_traits@D@std@@V?$allocator@D@2@@std@@V12@@std@@V?$allocator@U?$pair@V?$basic_string@DU?$char_traits@D@std@@V?$allocator@D@2@@std@@V12@@std@@@2@@2@PBV12@@Z 10016560 f i main.obj
 0001:000155b0       ??D?$_Const_iterator@$00@?$list@U?$pair@V?$basic_string@DU?$char_traits@D@std@@V?$allocator@D@2@@std@@V12@@std@@V?$allocator@U?$pair@V?$basic_string@DU?$char_traits@D@std@@V?$allocator@D@2@@std@@V12@@std@@@2@@std@@QBEABU?$pair@V?$basic_string@DU?$char_traits@D@std@@V?$allocator@D@2@@std@@V12@@2@XZ 100165b0 f i main.obj
 0001:00015610       ??E?$_Const_iterator@$00@?$list@U?$pair@V?$basic_string@DU?$char_traits@D@std@@V?$allocator@D@2@@std@@V12@@std@@V?$allocator@U?$pair@V?$basic_string@DU?$char_traits@D@std@@V?$allocator@D@2@@std@@V12@@std@@@2@@std@@QAEAAV012@XZ 10016610 f i main.obj
 0001:00015680       ??E?$_Const_iterator@$00@?$list@U?$pair@V?$basic_string@DU?$char_traits@D@std@@V?$allocator@D@2@@std@@V12@@std@@V?$allocator@U?$pair@V?$basic_string@DU?$char_traits@D@std@@V?$allocator@D@2@@std@@V12@@std@@@2@@std@@QAE?AV012@H@Z 10016680 f i main.obj
 0001:000156c0       ?_Mynode@?$_Const_iterator@$00@?$list@U?$pair@V?$basic_string@DU?$char_traits@D@std@@V?$allocator@D@2@@std@@V12@@std@@V?$allocator@U?$pair@V?$basic_string@DU?$char_traits@D@std@@V?$allocator@D@2@@std@@V12@@std@@@2@@std@@QBEPAU_Node@?$_List_nod@U?$pair@V?$basic_string@DU?$char_traits@D@std@@V?$allocator@D@2@@std@@V12@@std@@V?$allocator@U?$pair@V?$basic_string@DU?$char_traits@D@std@@V?$allocator@D@2@@std@@V12@@std@@@2@@3@XZ 100166c0 f i main.obj
 0001:000156e0       ??0?$_Vector_iterator@IV?$allocator@I@std@@@std@@QAE@PAIPBV_Container_base_aux@1@@Z 100166e0 f i main.obj
 0001:00015700       ??0?$_Vector_const_iterator@IV?$allocator@I@std@@@std@@QAE@PAIPBV_Container_base_aux@1@@Z 10016700 f i main.obj
 0001:00015750       ??H?$_Vector_iterator@IV?$allocator@I@std@@@std@@QBE?AV01@H@Z 10016750 f i main.obj
 0001:00015790       ??0?$_Vector_const_iterator@HV?$allocator@H@std@@@std@@QAE@PAHPBV_Container_base_aux@1@@Z 10016790 f i main.obj
 0001:000157e0       ??G?$_Vector_const_iterator@HV?$allocator@H@std@@@std@@QBEHABV01@@Z 100167e0 f i main.obj
 0001:00015830       ??0?$_Vector_iterator@HV?$allocator@H@std@@@std@@QAE@PAHPBV_Container_base_aux@1@@Z 10016830 f i main.obj
 0001:00015850       ??H?$_Vector_iterator@HV?$allocator@H@std@@@std@@QBE?AV01@H@Z 10016850 f i main.obj
 0001:00015890       ??0?$_Deque_iterator@V?$basic_string@DU?$char_traits@D@std@@V?$allocator@D@2@@std@@V?$allocator@V?$basic_string@DU?$char_traits@D@std@@V?$allocator@D@2@@std@@@2@$00@std@@QAE@IPBV_Container_base_aux@1@@Z 10016890 f i main.obj
 0001:000158b0       ??D?$_Deque_iterator@V?$basic_string@DU?$char_traits@D@std@@V?$allocator@D@2@@std@@V?$allocator@V?$basic_string@DU?$char_traits@D@std@@V?$allocator@D@2@@std@@@2@$00@std@@QBEAAV?$basic_string@DU?$char_traits@D@std@@V?$allocator@D@2@@1@XZ 100168b0 f i main.obj
 0001:000158d0       ??0?$_Deque_const_iterator@V?$basic_string@DU?$char_traits@D@std@@V?$allocator@D@2@@std@@V?$allocator@V?$basic_string@DU?$char_traits@D@std@@V?$allocator@D@2@@std@@@2@$00@std@@QAE@IPBV_Container_base_aux@1@@Z 100168d0 f i main.obj
 0001:00015930       ??0?$_Ranit@IHPBIABI@std@@QAE@XZ 10016930 f i main.obj
 0001:00015950       ??0?$_Bidit@V?$basic_string@DU?$char_traits@D@std@@V?$allocator@D@2@@std@@HPBV12@ABV12@@std@@QAE@XZ 10016950 f i main.obj
 0001:00015970       ??0?$_Bidit@U?$pair@$$CBV?$basic_string@DU?$char_traits@D@std@@V?$allocator@D@2@@std@@V12@@std@@HPBU12@ABU12@@std@@QAE@XZ 10016970 f i main.obj
 0001:00015990       ??0?$_Ranit@HHPBHABH@std@@QAE@XZ 10016990 f i main.obj
 0001:000159b0       ??0?$_Ranit@V?$basic_string@DU?$char_traits@D@std@@V?$allocator@D@2@@std@@HPBV12@ABV12@@std@@QAE@XZ 100169b0 f i main.obj
 0001:000159d0       ??0?$_Iterator_with_base@Urandom_access_iterator_tag@std@@IHPBIABIV_Iterator_base_aux@2@@std@@QAE@XZ 100169d0 f i main.obj
 0001:000159f0       ??0?$_Iterator_with_base@Ubidirectional_iterator_tag@std@@V?$basic_string@DU?$char_traits@D@std@@V?$allocator@D@2@@2@HPBV32@ABV32@V_Iterator_base_aux@2@@std@@QAE@XZ 100169f0 f i main.obj
 0001:00015a10       ??0?$_Iterator_with_base@Ubidirectional_iterator_tag@std@@U?$pair@$$CBV?$basic_string@DU?$char_traits@D@std@@V?$allocator@D@2@@std@@V12@@2@HPBU32@ABU32@V_Iterator_base_aux@2@@std@@QAE@XZ 10016a10 f i main.obj
 0001:00015a30       ??0?$_Iterator_with_base@Urandom_access_iterator_tag@std@@HHPBHABHV_Iterator_base_aux@2@@std@@QAE@XZ 10016a30 f i main.obj
 0001:00015a50       ??0?$_Iterator_with_base@Urandom_access_iterator_tag@std@@V?$basic_string@DU?$char_traits@D@std@@V?$allocator@D@2@@2@HPBV32@ABV32@V_Iterator_base_aux@2@@std@@QAE@XZ 10016a50 f i main.obj
 0001:00015a70       ?allocate@?$allocator@V_Aux_cont@std@@@std@@QAEPAV_Aux_cont@2@I@Z 10016a70 f i main.obj
 0001:00015a90       ?max_size@?$allocator@I@std@@QBEIXZ 10016a90 f i main.obj
 0001:00015ac0       ?max_size@?$allocator@V?$basic_string@DU?$char_traits@D@std@@V?$allocator@D@2@@std@@@std@@QBEIXZ 10016ac0 f i main.obj
 0001:00015af0       ?_Color@?$_Tree@V?$_Tmap_traits@V?$basic_string@DU?$char_traits@D@std@@V?$allocator@D@2@@std@@V12@U?$less@V?$basic_string@DU?$char_traits@D@std@@V?$allocator@D@2@@std@@@2@V?$allocator@U?$pair@$$CBV?$basic_string@DU?$char_traits@D@std@@V?$allocator@D@2@@std@@V12@@std@@@2@$0A@@std@@@std@@KAAADPAU_Node@?$_Tree_nod@V?$_Tmap_traits@V?$basic_string@DU?$char_traits@D@std@@V?$allocator@D@2@@std@@V12@U?$less@V?$basic_string@DU?$char_traits@D@std@@V?$allocator@D@2@@std@@@2@V?$allocator@U?$pair@$$CBV?$basic_string@DU?$char_traits@D@std@@V?$allocator@D@2@@std@@V12@@std@@@2@$0A@@std@@@2@@Z 10016af0 f i main.obj
 0001:00015b00       ?max_size@?$_Tree@V?$_Tmap_traits@V?$basic_string@DU?$char_traits@D@std@@V?$allocator@D@2@@std@@V12@U?$less@V?$basic_string@DU?$char_traits@D@std@@V?$allocator@D@2@@std@@@2@V?$allocator@U?$pair@$$CBV?$basic_string@DU?$char_traits@D@std@@V?$allocator@D@2@@std@@V12@@std@@@2@$0A@@std@@@std@@QBEIXZ 10016b00 f i main.obj
 0001:00015b20       ?_Erase@?$_Tree@V?$_Tmap_traits@V?$basic_string@DU?$char_traits@D@std@@V?$allocator@D@2@@std@@V12@U?$less@V?$basic_string@DU?$char_traits@D@std@@V?$allocator@D@2@@std@@@2@V?$allocator@U?$pair@$$CBV?$basic_string@DU?$char_traits@D@std@@V?$allocator@D@2@@std@@V12@@std@@@2@$0A@@std@@@std@@IAEXPAU_Node@?$_Tree_nod@V?$_Tmap_traits@V?$basic_string@DU?$char_traits@D@std@@V?$allocator@D@2@@std@@V12@U?$less@V?$basic_string@DU?$char_traits@D@std@@V?$allocator@D@2@@std@@@2@V?$allocator@U?$pair@$$CBV?$basic_string@DU?$char_traits@D@std@@V?$allocator@D@2@@std@@V12@@std@@@2@$0A@@std@@@2@@Z 10016b20 f i main.obj
 0001:00015ba0       ?_Lrotate@?$_Tree@V?$_Tmap_traits@V?$basic_string@DU?$char_traits@D@std@@V?$allocator@D@2@@std@@V12@U?$less@V?$basic_string@DU?$char_traits@D@std@@V?$allocator@D@2@@std@@@2@V?$allocator@U?$pair@$$CBV?$basic_string@DU?$char_traits@D@std@@V?$allocator@D@2@@std@@V12@@std@@@2@$0A@@std@@@std@@IAEXPAU_Node@?$_Tree_nod@V?$_Tmap_traits@V?$basic_string@DU?$char_traits@D@std@@V?$allocator@D@2@@std@@V12@U?$less@V?$basic_string@DU?$char_traits@D@std@@V?$allocator@D@2@@std@@@2@V?$allocator@U?$pair@$$CBV?$basic_string@DU?$char_traits@D@std@@V?$allocator@D@2@@std@@V12@@std@@@2@$0A@@std@@@2@@Z 10016ba0 f i main.obj
 0001:00015cd0       ?_Rrotate@?$_Tree@V?$_Tmap_traits@V?$basic_string@DU?$char_traits@D@std@@V?$allocator@D@2@@std@@V12@U?$less@V?$basic_string@DU?$char_traits@D@std@@V?$allocator@D@2@@std@@@2@V?$allocator@U?$pair@$$CBV?$basic_string@DU?$char_traits@D@std@@V?$allocator@D@2@@std@@V12@@std@@@2@$0A@@std@@@std@@IAEXPAU_Node@?$_Tree_nod@V?$_Tmap_traits@V?$basic_string@DU?$char_traits@D@std@@V?$allocator@D@2@@std@@V12@U?$less@V?$basic_string@DU?$char_traits@D@std@@V?$allocator@D@2@@std@@@2@V?$allocator@U?$pair@$$CBV?$basic_string@DU?$char_traits@D@std@@V?$allocator@D@2@@std@@V12@@std@@@2@$0A@@std@@@2@@Z 10016cd0 f i main.obj
 0001:00015e00       ?_Buynode@?$_Tree@V?$_Tmap_traits@V?$basic_string@DU?$char_traits@D@std@@V?$allocator@D@2@@std@@V12@U?$less@V?$basic_string@DU?$char_traits@D@std@@V?$allocator@D@2@@std@@@2@V?$allocator@U?$pair@$$CBV?$basic_string@DU?$char_traits@D@std@@V?$allocator@D@2@@std@@V12@@std@@@2@$0A@@std@@@std@@IAEPAU_Node@?$_Tree_nod@V?$_Tmap_traits@V?$basic_string@DU?$char_traits@D@std@@V?$allocator@D@2@@std@@V12@U?$less@V?$basic_string@DU?$char_traits@D@std@@V?$allocator@D@2@@std@@@2@V?$allocator@U?$pair@$$CBV?$basic_string@DU?$char_traits@D@std@@V?$allocator@D@2@@std@@V12@@std@@@2@$0A@@std@@@2@PAU342@00ABU?$pair@$$CBV?$basic_string@DU?$char_traits@D@std@@V?$allocator@D@2@@std@@V12@@2@D@Z 10016e00 f i main.obj
 0001:00015ef0       ??0?$_Tree_nod@V?$_Tmap_traits@V?$basic_string@DU?$char_traits@D@std@@V?$allocator@D@2@@std@@V12@U?$less@V?$basic_string@DU?$char_traits@D@std@@V?$allocator@D@2@@std@@@2@V?$allocator@U?$pair@$$CBV?$basic_string@DU?$char_traits@D@std@@V?$allocator@D@2@@std@@V12@@std@@@2@$0A@@std@@@std@@IAE@ABU?$less@V?$basic_string@DU?$char_traits@D@std@@V?$allocator@D@2@@std@@@1@V?$allocator@U?$pair@$$CBV?$basic_string@DU?$char_traits@D@std@@V?$allocator@D@2@@std@@V12@@std@@@1@@Z 10016ef0 f i main.obj
 0001:00015f30       ?allocate@?$allocator@U_Node@?$_Tree_nod@V?$_Tmap_traits@V?$basic_string@DU?$char_traits@D@std@@V?$allocator@D@2@@std@@V12@U?$less@V?$basic_string@DU?$char_traits@D@std@@V?$allocator@D@2@@std@@@2@V?$allocator@U?$pair@$$CBV?$basic_string@DU?$char_traits@D@std@@V?$allocator@D@2@@std@@V12@@std@@@2@$0A@@std@@@std@@@std@@QAEPAU_Node@?$_Tree_nod@V?$_Tmap_traits@V?$basic_string@DU?$char_traits@D@std@@V?$allocator@D@2@@std@@V12@U?$less@V?$basic_string@DU?$char_traits@D@std@@V?$allocator@D@2@@std@@@2@V?$allocator@U?$pair@$$CBV?$basic_string@DU?$char_traits@D@std@@V?$allocator@D@2@@std@@V12@@std@@@2@$0A@@std@@@2@I@Z 10016f30 f i main.obj
 0001:00015f50       ?destroy@?$allocator@U_Node@?$_Tree_nod@V?$_Tmap_traits@V?$basic_string@DU?$char_traits@D@std@@V?$allocator@D@2@@std@@V12@U?$less@V?$basic_string@DU?$char_traits@D@std@@V?$allocator@D@2@@std@@@2@V?$allocator@U?$pair@$$CBV?$basic_string@DU?$char_traits@D@std@@V?$allocator@D@2@@std@@V12@@std@@@2@$0A@@std@@@std@@@std@@QAEXPAU_Node@?$_Tree_nod@V?$_Tmap_traits@V?$basic_string@DU?$char_traits@D@std@@V?$allocator@D@2@@std@@V12@U?$less@V?$basic_string@DU?$char_traits@D@std@@V?$allocator@D@2@@std@@@2@V?$allocator@U?$pair@$$CBV?$basic_string@DU?$char_traits@D@std@@V?$allocator@D@2@@std@@V12@@std@@@2@$0A@@std@@@2@@Z 10016f50 f i main.obj
 0001:00015f70       ?construct@?$allocator@PAU_Node@?$_Tree_nod@V?$_Tmap_traits@V?$basic_string@DU?$char_traits@D@std@@V?$allocator@D@2@@std@@V12@U?$less@V?$basic_string@DU?$char_traits@D@std@@V?$allocator@D@2@@std@@@2@V?$allocator@U?$pair@$$CBV?$basic_string@DU?$char_traits@D@std@@V?$allocator@D@2@@std@@V12@@std@@@2@$0A@@std@@@std@@@std@@QAEXPAPAU_Node@?$_Tree_nod@V?$_Tmap_traits@V?$basic_string@DU?$char_traits@D@std@@V?$allocator@D@2@@std@@V12@U?$less@V?$basic_string@DU?$char_traits@D@std@@V?$allocator@D@2@@std@@@2@V?$allocator@U?$pair@$$CBV?$basic_string@DU?$char_traits@D@std@@V?$allocator@D@2@@std@@V12@@std@@@2@$0A@@std@@@2@ABQAU342@@Z 10016f70 f i main.obj
 0001:00015f90       ?max_size@?$allocator@H@std@@QBEIXZ 10016f90 f i main.obj
 0001:00015fc0       ?_Dec@const_iterator@?$_Tree@V?$_Tmap_traits@V?$basic_string@DU?$char_traits@D@std@@V?$allocator@D@2@@std@@V12@U?$less@V?$basic_string@DU?$char_traits@D@std@@V?$allocator@D@2@@std@@@2@V?$allocator@U?$pair@$$CBV?$basic_string@DU?$char_traits@D@std@@V?$allocator@D@2@@std@@V12@@std@@@2@$0A@@std@@@std@@QAEXXZ 10016fc0 f i main.obj
 0001:000160f0       ?_Inc@const_iterator@?$_Tree@V?$_Tmap_traits@V?$basic_string@DU?$char_traits@D@std@@V?$allocator@D@2@@std@@V12@U?$less@V?$basic_string@DU?$char_traits@D@std@@V?$allocator@D@2@@std@@@2@V?$allocator@U?$pair@$$CBV?$basic_string@DU?$char_traits@D@std@@V?$allocator@D@2@@std@@V12@@std@@@2@$0A@@std@@@std@@QAEXXZ 100170f0 f i main.obj
 0001:000161d0       ??Fiterator@?$_Tree@V?$_Tmap_traits@V?$basic_string@DU?$char_traits@D@std@@V?$allocator@D@2@@std@@V12@U?$less@V?$basic_string@DU?$char_traits@D@std@@V?$allocator@D@2@@std@@@2@V?$allocator@U?$pair@$$CBV?$basic_string@DU?$char_traits@D@std@@V?$allocator@D@2@@std@@V12@@std@@@2@$0A@@std@@@std@@QAEAAV012@XZ 100171d0 f i main.obj
 0001:000161f0       ?construct@?$allocator@PAVGeometry@osg@@@std@@QAEXPAPAVGeometry@osg@@ABQAV34@@Z 100171f0 f i main.obj
 0001:00016210       ?max_size@?$list@PAVGeometry@osg@@V?$allocator@PAVGeometry@osg@@@std@@@std@@QBEIXZ 10017210 f i main.obj
 0001:00016230       ??0?$_List_nod@PAVGeometry@osg@@V?$allocator@PAVGeometry@osg@@@std@@@std@@IAE@V?$allocator@PAVGeometry@osg@@@1@@Z 10017230 f i main.obj
 0001:00016270       ?destroy@?$allocator@U_Node@?$_List_nod@PAVGeometry@osg@@V?$allocator@PAVGeometry@osg@@@std@@@std@@@std@@QAEXPAU_Node@?$_List_nod@PAVGeometry@osg@@V?$allocator@PAVGeometry@osg@@@std@@@2@@Z 10017270 f i main.obj
 0001:00016290       ?_Myval@?$list@VReadResult@ReaderWriter@osgDB@@V?$allocator@VReadResult@ReaderWriter@osgDB@@@std@@@std@@KAAAVReadResult@ReaderWriter@osgDB@@PAU_Node@?$_List_nod@VReadResult@ReaderWriter@osgDB@@V?$allocator@VReadResult@ReaderWriter@osgDB@@@std@@@2@@Z 10017290 f i main.obj
 0001:000162a0       ?max_size@?$list@VReadResult@ReaderWriter@osgDB@@V?$allocator@VReadResult@ReaderWriter@osgDB@@@std@@@std@@QBEIXZ 100172a0 f i main.obj
 0001:000162c0       ??0?$_List_nod@VReadResult@ReaderWriter@osgDB@@V?$allocator@VReadResult@ReaderWriter@osgDB@@@std@@@std@@IAE@V?$allocator@VReadResult@ReaderWriter@osgDB@@@1@@Z 100172c0 f i main.obj
 0001:00016300       ?construct@?$allocator@VReadResult@ReaderWriter@osgDB@@@std@@QAEXPAVReadResult@ReaderWriter@osgDB@@ABV345@@Z 10017300 f i main.obj
 0001:00016320       ?destroy@?$allocator@U_Node@?$_List_nod@VReadResult@ReaderWriter@osgDB@@V?$allocator@VReadResult@ReaderWriter@osgDB@@@std@@@std@@@std@@QAEXPAU_Node@?$_List_nod@VReadResult@ReaderWriter@osgDB@@V?$allocator@VReadResult@ReaderWriter@osgDB@@@std@@@2@@Z 10017320 f i main.obj
 0001:00016340       ?_Myval@?$list@V?$basic_string@DU?$char_traits@D@std@@V?$allocator@D@2@@std@@V?$allocator@V?$basic_string@DU?$char_traits@D@std@@V?$allocator@D@2@@std@@@2@@std@@KAAAV?$basic_string@DU?$char_traits@D@std@@V?$allocator@D@2@@2@PAU_Node@?$_List_nod@V?$basic_string@DU?$char_traits@D@std@@V?$allocator@D@2@@std@@V?$allocator@V?$basic_string@DU?$char_traits@D@std@@V?$allocator@D@2@@std@@@2@@2@@Z 10017340 f i main.obj
 0001:00016350       ?max_size@?$list@V?$basic_string@DU?$char_traits@D@std@@V?$allocator@D@2@@std@@V?$allocator@V?$basic_string@DU?$char_traits@D@std@@V?$allocator@D@2@@std@@@2@@std@@QBEIXZ 10017350 f i main.obj
 0001:00016370       ??0?$_List_nod@V?$basic_string@DU?$char_traits@D@std@@V?$allocator@D@2@@std@@V?$allocator@V?$basic_string@DU?$char_traits@D@std@@V?$allocator@D@2@@std@@@2@@std@@IAE@V?$allocator@V?$basic_string@DU?$char_traits@D@std@@V?$allocator@D@2@@std@@@1@@Z 10017370 f i main.obj
 0001:000163b0       ?destroy@?$allocator@U_Node@?$_List_nod@V?$basic_string@DU?$char_traits@D@std@@V?$allocator@D@2@@std@@V?$allocator@V?$basic_string@DU?$char_traits@D@std@@V?$allocator@D@2@@std@@@2@@std@@@std@@QAEXPAU_Node@?$_List_nod@V?$basic_string@DU?$char_traits@D@std@@V?$allocator@D@2@@std@@V?$allocator@V?$basic_string@DU?$char_traits@D@std@@V?$allocator@D@2@@std@@@2@@2@@Z 100173b0 f i main.obj
 0001:000163d0       ?max_size@?$list@PAVZipEntry@@V?$allocator@PAVZipEntry@@@std@@@std@@QBEIXZ 100173d0 f i main.obj
 0001:000163f0       ??0?$_List_nod@PAVZipEntry@@V?$allocator@PAVZipEntry@@@std@@@std@@IAE@V?$allocator@PAVZipEntry@@@1@@Z 100173f0 f i main.obj
 0001:00016430       ?construct@?$allocator@PAVZipEntry@@@std@@QAEXPAPAVZipEntry@@ABQAV3@@Z 10017430 f i main.obj
 0001:00016450       ?destroy@?$allocator@U_Node@?$_List_nod@PAVZipEntry@@V?$allocator@PAVZipEntry@@@std@@@std@@@std@@QAEXPAU_Node@?$_List_nod@PAVZipEntry@@V?$allocator@PAVZipEntry@@@std@@@2@@Z 10017450 f i main.obj
 0001:00016470       ?_Myval@?$list@U?$pair@V?$basic_string@DU?$char_traits@D@std@@V?$allocator@D@2@@std@@V12@@std@@V?$allocator@U?$pair@V?$basic_string@DU?$char_traits@D@std@@V?$allocator@D@2@@std@@V12@@std@@@2@@std@@KAAAU?$pair@V?$basic_string@DU?$char_traits@D@std@@V?$allocator@D@2@@std@@V12@@2@PAU_Node@?$_List_nod@U?$pair@V?$basic_string@DU?$char_traits@D@std@@V?$allocator@D@2@@std@@V12@@std@@V?$allocator@U?$pair@V?$basic_string@DU?$char_traits@D@std@@V?$allocator@D@2@@std@@V12@@std@@@2@@2@@Z 10017470 f i main.obj
 0001:00016480       ?max_size@?$list@U?$pair@V?$basic_string@DU?$char_traits@D@std@@V?$allocator@D@2@@std@@V12@@std@@V?$allocator@U?$pair@V?$basic_string@DU?$char_traits@D@std@@V?$allocator@D@2@@std@@V12@@std@@@2@@std@@QBEIXZ 10017480 f i main.obj
 0001:000164a0       ??0?$_List_nod@U?$pair@V?$basic_string@DU?$char_traits@D@std@@V?$allocator@D@2@@std@@V12@@std@@V?$allocator@U?$pair@V?$basic_string@DU?$char_traits@D@std@@V?$allocator@D@2@@std@@V12@@std@@@2@@std@@IAE@V?$allocator@U?$pair@V?$basic_string@DU?$char_traits@D@std@@V?$allocator@D@2@@std@@V12@@std@@@1@@Z 100174a0 f i main.obj
 0001:000164e0       ?construct@?$allocator@U?$pair@V?$basic_string@DU?$char_traits@D@std@@V?$allocator@D@2@@std@@V12@@std@@@std@@QAEXPAU?$pair@V?$basic_string@DU?$char_traits@D@std@@V?$allocator@D@2@@std@@V12@@2@ABU32@@Z 100174e0 f i main.obj
 0001:00016500       ??Y?$_Vector_iterator@IV?$allocator@I@std@@@std@@QAEAAV01@H@Z 10017500 f i main.obj
 0001:00016520       ??Y?$_Vector_iterator@HV?$allocator@H@std@@@std@@QAEAAV01@H@Z 10017520 f i main.obj
 0001:00016540       ??D?$_Deque_const_iterator@V?$basic_string@DU?$char_traits@D@std@@V?$allocator@D@2@@std@@V?$allocator@V?$basic_string@DU?$char_traits@D@std@@V?$allocator@D@2@@std@@@2@$00@std@@QBEABV?$basic_string@DU?$char_traits@D@std@@V?$allocator@D@2@@1@XZ 10017540 f i main.obj
 0001:000165e0       ??0?$pair@Viterator@?$_Tree@V?$_Tmap_traits@V?$basic_string@DU?$char_traits@D@std@@V?$allocator@D@2@@std@@V12@U?$less@V?$basic_string@DU?$char_traits@D@std@@V?$allocator@D@2@@std@@@2@V?$allocator@U?$pair@$$CBV?$basic_string@DU?$char_traits@D@std@@V?$allocator@D@2@@std@@V12@@std@@@2@$0A@@std@@@std@@_N@std@@QAE@ABViterator@?$_Tree@V?$_Tmap_traits@V?$basic_string@DU?$char_traits@D@std@@V?$allocator@D@2@@std@@V12@U?$less@V?$basic_string@DU?$char_traits@D@std@@V?$allocator@D@2@@std@@@2@V?$allocator@U?$pair@$$CBV?$basic_string@DU?$char_traits@D@std@@V?$allocator@D@2@@std@@V12@@std@@@2@$0A@@std@@@1@AB_N@Z 100175e0 f i main.obj
 0001:00016610       ??0?$_Tmap_traits@V?$basic_string@DU?$char_traits@D@std@@V?$allocator@D@2@@std@@V12@U?$less@V?$basic_string@DU?$char_traits@D@std@@V?$allocator@D@2@@std@@@2@V?$allocator@U?$pair@$$CBV?$basic_string@DU?$char_traits@D@std@@V?$allocator@D@2@@std@@V12@@std@@@2@$0A@@std@@QAE@U?$less@V?$basic_string@DU?$char_traits@D@std@@V?$allocator@D@2@@std@@@1@V?$allocator@U?$pair@$$CBV?$basic_string@DU?$char_traits@D@std@@V?$allocator@D@2@@std@@V12@@std@@@1@@Z 10017610 f i main.obj
 0001:00016640       ?max_size@?$allocator@U?$pair@$$CBV?$basic_string@DU?$char_traits@D@std@@V?$allocator@D@2@@std@@V12@@std@@@std@@QBEIXZ 10017640 f i main.obj
 0001:00016670       ??Y?$_Vector_const_iterator@IV?$allocator@I@std@@@std@@QAEAAV01@H@Z 10017670 f i main.obj
 0001:000166f0       ??0?$_Container_base_aux_alloc_real@V?$allocator@PAVGeometry@osg@@@std@@@std@@IAE@V?$allocator@PAVGeometry@osg@@@1@@Z 100176f0 f i main.obj
 0001:000167b0       ?max_size@?$allocator@PAVGeometry@osg@@@std@@QBEIXZ 100177b0 f i main.obj
 0001:000167e0       ??0?$_Container_base_aux_alloc_real@V?$allocator@VReadResult@ReaderWriter@osgDB@@@std@@@std@@IAE@V?$allocator@VReadResult@ReaderWriter@osgDB@@@1@@Z 100177e0 f i main.obj
 0001:000168a0       ?max_size@?$allocator@VReadResult@ReaderWriter@osgDB@@@std@@QBEIXZ 100178a0 f i main.obj
 0001:000168d0       ??0?$_Container_base_aux_alloc_real@V?$allocator@PAVZipEntry@@@std@@@std@@IAE@V?$allocator@PAVZipEntry@@@1@@Z 100178d0 f i main.obj
 0001:00016990       ?max_size@?$allocator@PAVZipEntry@@@std@@QBEIXZ 10017990 f i main.obj
 0001:000169c0       ??0?$_Container_base_aux_alloc_real@V?$allocator@U?$pair@V?$basic_string@DU?$char_traits@D@std@@V?$allocator@D@2@@std@@V12@@std@@@std@@@std@@IAE@V?$allocator@U?$pair@V?$basic_string@DU?$char_traits@D@std@@V?$allocator@D@2@@std@@V12@@std@@@1@@Z 100179c0 f i main.obj
 0001:00016a80       ?max_size@?$allocator@U?$pair@V?$basic_string@DU?$char_traits@D@std@@V?$allocator@D@2@@std@@V12@@std@@@std@@QBEIXZ 10017a80 f i main.obj
 0001:00016ab0       ??Y?$_Vector_const_iterator@HV?$allocator@H@std@@@std@@QAEAAV01@H@Z 10017ab0 f i main.obj
 0001:00016b30       ??0_Node@?$_Tree_nod@V?$_Tmap_traits@V?$basic_string@DU?$char_traits@D@std@@V?$allocator@D@2@@std@@V12@U?$less@V?$basic_string@DU?$char_traits@D@std@@V?$allocator@D@2@@std@@@2@V?$allocator@U?$pair@$$CBV?$basic_string@DU?$char_traits@D@std@@V?$allocator@D@2@@std@@V12@@std@@@2@$0A@@std@@@std@@QAE@PAU012@00ABU?$pair@$$CBV?$basic_string@DU?$char_traits@D@std@@V?$allocator@D@2@@std@@V12@@2@D@Z 10017b30 f i main.obj
 0001:00016b80       ??0?$pair@$$CBV?$basic_string@DU?$char_traits@D@std@@V?$allocator@D@2@@std@@V12@@std@@QAE@ABU01@@Z 10017b80 f i main.obj
 0001:00016bf0       ??0?$_Container_base_aux_alloc_real@V?$allocator@U?$pair@$$CBV?$basic_string@DU?$char_traits@D@std@@V?$allocator@D@2@@std@@V12@@std@@@std@@@std@@IAE@V?$allocator@U?$pair@$$CBV?$basic_string@DU?$char_traits@D@std@@V?$allocator@D@2@@std@@V12@@std@@@1@@Z 10017bf0 f i main.obj
 0001:00016cb0       ??$swap@D@std@@YAXAAD0@Z   10017cb0 f i main.obj
 0001:00016ce0       ??$?6U?$char_traits@D@std@@@std@@YAAAV?$basic_ostream@DU?$char_traits@D@std@@@0@AAV10@PBD@Z 10017ce0 f i main.obj
 0001:00016fc0       ??0sentry@?$basic_ostream@DU?$char_traits@D@std@@@std@@QAE@AAV12@@Z 10017fc0 f i main.obj
 0001:00017080       ??1sentry@?$basic_ostream@DU?$char_traits@D@std@@@std@@QAE@XZ 10018080 f i main.obj
 0001:000170f0       ??Bsentry@?$basic_ostream@DU?$char_traits@D@std@@@std@@QBE_NXZ 100180f0 f i main.obj
 0001:00017110       ??0_Sentry_base@?$basic_ostream@DU?$char_traits@D@std@@@std@@QAE@AAV12@@Z 10018110 f i main.obj
 0001:00017160       ??1_Sentry_base@?$basic_ostream@DU?$char_traits@D@std@@@std@@QAE@XZ 10018160 f i main.obj
 0001:000171b0       ??$drawElementsImplementation@E@PrimitiveWriter@@IAEXIHPBE@Z 100181b0 f i main.obj
 0001:00017530       ??$drawElementsImplementation@G@PrimitiveWriter@@IAEXIHPBG@Z 10018530 f i main.obj
 0001:000178c0       ??$drawElementsImplementation@I@PrimitiveWriter@@IAEXIHPBI@Z 100188c0 f i main.obj
 0001:00017c30       ??$ProcessSinglePPrim@VDrawElementsUShort@osg@@@Triangulator@@AAEXPAVGeometry@osg@@HPAVPrimitiveSet@2@@Z 10018c30 f i main.obj
 0001:00017e00       ??_GDrawElementsUShort@osg@@MAEPAXI@Z 10018e00 f i main.obj
 0001:00017e00       ??_EDrawElementsUShort@osg@@MAEPAXI@Z 10018e00 f i main.obj
 0001:00017e30       ??$ProcessSinglePPrim@VDrawElementsUInt@osg@@@Triangulator@@AAEXPAVGeometry@osg@@HPAVPrimitiveSet@2@@Z 10018e30 f i main.obj
 0001:00018000       ??$ProcessSinglePPrim@VDrawElementsUByte@osg@@@Triangulator@@AAEXPAVGeometry@osg@@HPAVPrimitiveSet@2@@Z 10019000 f i main.obj
 0001:000181d0       ??_GDrawElementsUByte@osg@@MAEPAXI@Z 100191d0 f i main.obj
 0001:000181d0       ??_EDrawElementsUByte@osg@@MAEPAXI@Z 100191d0 f i main.obj
 0001:00018200       ??$ProcessTriStrip@VDrawElementsUInt@osg@@@Triangulator@@AAEXPAVDrawElementsUInt@osg@@V?$vector@HV?$allocator@H@std@@@std@@@Z 10019200 f i main.obj
 0001:00018390       ??$ProcessTriFan@VDrawElementsUInt@osg@@@Triangulator@@AAEXPAVDrawElementsUInt@osg@@V?$vector@HV?$allocator@H@std@@@std@@@Z 10019390 f i main.obj
 0001:000184c0       ??$find@V?$_Iterator@$00@?$list@V?$basic_string@DU?$char_traits@D@std@@V?$allocator@D@2@@std@@V?$allocator@V?$basic_string@DU?$char_traits@D@std@@V?$allocator@D@2@@std@@@2@@std@@V?$basic_string@DU?$char_traits@D@std@@V?$allocator@D@2@@3@@std@@YA?AV?$_Iterator@$00@?$list@V?$basic_string@DU?$char_traits@D@std@@V?$allocator@D@2@@std@@V?$allocator@V?$basic_string@DU?$char_traits@D@std@@V?$allocator@D@2@@std@@@2@@0@V120@0ABV?$basic_string@DU?$char_traits@D@std@@V?$allocator@D@2@@0@@Z 100194c0 f i main.obj
 0001:00018530       ??$?0V?$_String_iterator@_WU?$char_traits@_W@std@@V?$allocator@_W@2@@std@@@?$basic_string@DU?$char_traits@D@std@@V?$allocator@D@2@@std@@QAE@V?$_String_iterator@_WU?$char_traits@_W@std@@V?$allocator@_W@2@@1@0@Z 10019530 f i main.obj
 0001:00018590       ??$make_pair@HH@std@@YA?AU?$pair@HH@0@HH@Z 10019590 f i main.obj
 0001:000185b0       ??$toString@M@@YA?AV?$basic_string@DU?$char_traits@D@std@@V?$allocator@D@2@@std@@ABM@Z 100195b0 f i main.obj
 0001:00018650       ??$toString@W4domUpAxisType@@@@YA?AV?$basic_string@DU?$char_traits@D@std@@V?$allocator@D@2@@std@@ABW4domUpAxisType@@@Z 10019650 f i main.obj
 0001:000186f0       ??$?0V?$_String_iterator@DU?$char_traits@D@std@@V?$allocator@D@2@@std@@@?$basic_string@_WU?$char_traits@_W@std@@V?$allocator@_W@2@@std@@QAE@V?$_String_iterator@DU?$char_traits@D@std@@V?$allocator@D@2@@1@0@Z 100196f0 f i main.obj
 0001:00018750       ??$toString@H@@YA?AV?$basic_string@DU?$char_traits@D@std@@V?$allocator@D@2@@std@@ABH@Z 10019750 f i main.obj
 0001:000187f0       ??$unchecked_copy@PAIPAI@stdext@@YAPAIPAI00@Z 100197f0 f i main.obj
 0001:00018860       ??$_Ucopy@V?$_Vector_const_iterator@HV?$allocator@H@std@@@std@@@?$vector@HV?$allocator@H@std@@@std@@IAEPAHV?$_Vector_const_iterator@HV?$allocator@H@std@@@1@0PAH@Z 10019860 f i main.obj
 0001:00018890       ??$?8V?$basic_string@DU?$char_traits@D@std@@V?$allocator@D@2@@std@@V01@@std@@YA_NABU?$pair@V?$basic_string@DU?$char_traits@D@std@@V?$allocator@D@2@@std@@V12@@0@0@Z 10019890 f i main.obj
 0001:000188f0       ??$_Destroy_range@V?$allocator@I@std@@@std@@YAXPAI0AAV?$allocator@I@0@@Z 100198f0 f i main.obj
 0001:00018930       ??$unchecked_uninitialized_fill_n@PAIIIV?$allocator@I@std@@@stdext@@YAXPAIIABIAAV?$allocator@I@std@@@Z 10019930 f i main.obj
 0001:00018980       ??$_Allocate@V?$basic_string@DU?$char_traits@D@std@@V?$allocator@D@2@@std@@@std@@YAPAV?$basic_string@DU?$char_traits@D@std@@V?$allocator@D@2@@0@IPAV10@@Z 10019980 f i main.obj
 0001:000189d0       ??0bad_alloc@std@@QAE@PBD@Z 100199d0 f i main.obj
 0001:00018a00       ??1bad_alloc@std@@UAE@XZ   10019a00 f i main.obj
 0001:00018a20       ??_Gbad_alloc@std@@UAEPAXI@Z 10019a20 f i main.obj
 0001:00018a20       ??_Ebad_alloc@std@@UAEPAXI@Z 10019a20 f i main.obj
 0001:00018a50       ??$_Construct@V?$basic_string@DU?$char_traits@D@std@@V?$allocator@D@2@@std@@V12@@std@@YAXPAV?$basic_string@DU?$char_traits@D@std@@V?$allocator@D@2@@0@ABV10@@Z 10019a50 f i main.obj
 0001:00018ad0       ??$unchecked_uninitialized_fill_n@PAHIHV?$allocator@H@std@@@stdext@@YAXPAHIABHAAV?$allocator@H@std@@@Z 10019ad0 f i main.obj
 0001:00018b20       ??$unchecked_uninitialized_copy@PAPAV?$basic_string@DU?$char_traits@D@std@@V?$allocator@D@2@@std@@PAPAV12@V?$allocator@PAV?$basic_string@DU?$char_traits@D@std@@V?$allocator@D@2@@std@@@2@@stdext@@YAPAPAV?$basic_string@DU?$char_traits@D@std@@V?$allocator@D@2@@std@@PAPAV12@00AAV?$allocator@PAV?$basic_string@DU?$char_traits@D@std@@V?$allocator@D@2@@std@@@2@@Z 10019b20 f i main.obj
 0001:00018b80       ??$unchecked_uninitialized_fill_n@PAPAV?$basic_string@DU?$char_traits@D@std@@V?$allocator@D@2@@std@@IPAV12@V?$allocator@PAV?$basic_string@DU?$char_traits@D@std@@V?$allocator@D@2@@std@@@2@@stdext@@YAXPAPAV?$basic_string@DU?$char_traits@D@std@@V?$allocator@D@2@@std@@IABQAV12@AAV?$allocator@PAV?$basic_string@DU?$char_traits@D@std@@V?$allocator@D@2@@std@@@2@@Z 10019b80 f i main.obj
 0001:00018bd0       ??$_Destroy_range@V?$allocator@PAV?$basic_string@DU?$char_traits@D@std@@V?$allocator@D@2@@std@@@std@@@std@@YAXPAPAV?$basic_string@DU?$char_traits@D@std@@V?$allocator@D@2@@0@0AAV?$allocator@PAV?$basic_string@DU?$char_traits@D@std@@V?$allocator@D@2@@std@@@0@@Z 10019bd0 f i main.obj
 0001:00018c10       ??$_Umove@PAI@?$vector@IV?$allocator@I@std@@@std@@IAEPAIPAI00@Z 10019c10 f i main.obj
 0001:00018c40       ??$fill@PAII@std@@YAXPAI0ABI@Z 10019c40 f i main.obj
 0001:00018c70       ??$_Unchecked_move_backward@PAIPAI@stdext@@YAPAIPAI00@Z 10019c70 f i main.obj
 0001:00018ce0       ??$?0I@?$allocator@V_Aux_cont@std@@@std@@QAE@ABV?$allocator@I@1@@Z 10019ce0 f i main.obj
 0001:00018cf0       ??$_Allocate@I@std@@YAPAIIPAI@Z 10019cf0 f i main.obj
 0001:00018d40       ??$_Destroy@V?$basic_string@DU?$char_traits@D@std@@V?$allocator@D@2@@std@@@std@@YAXPAV?$basic_string@DU?$char_traits@D@std@@V?$allocator@D@2@@0@@Z 10019d40 f i main.obj
 0001:00018d50       ??$?0V?$basic_string@DU?$char_traits@D@std@@V?$allocator@D@2@@std@@@?$allocator@V_Aux_cont@std@@@std@@QAE@ABV?$allocator@V?$basic_string@DU?$char_traits@D@std@@V?$allocator@D@2@@std@@@1@@Z 10019d50 f i main.obj
 0001:00018d60       ??$?0U?$pair@$$CBV?$basic_string@DU?$char_traits@D@std@@V?$allocator@D@2@@std@@V12@@std@@@?$allocator@PAU_Node@?$_Tree_nod@V?$_Tmap_traits@V?$basic_string@DU?$char_traits@D@std@@V?$allocator@D@2@@std@@V12@U?$less@V?$basic_string@DU?$char_traits@D@std@@V?$allocator@D@2@@std@@@2@V?$allocator@U?$pair@$$CBV?$basic_string@DU?$char_traits@D@std@@V?$allocator@D@2@@std@@V12@@std@@@2@$0A@@std@@@std@@@std@@QAE@ABV?$allocator@U?$pair@$$CBV?$basic_string@DU?$char_traits@D@std@@V?$allocator@D@2@@std@@V12@@std@@@1@@Z 10019d60 f i main.obj
 0001:00018d70       ??$_Destroy@PAU_Node@?$_Tree_nod@V?$_Tmap_traits@V?$basic_string@DU?$char_traits@D@std@@V?$allocator@D@2@@std@@V12@U?$less@V?$basic_string@DU?$char_traits@D@std@@V?$allocator@D@2@@std@@@2@V?$allocator@U?$pair@$$CBV?$basic_string@DU?$char_traits@D@std@@V?$allocator@D@2@@std@@V12@@std@@@2@$0A@@std@@@std@@@std@@YAXPAPAU_Node@?$_Tree_nod@V?$_Tmap_traits@V?$basic_string@DU?$char_traits@D@std@@V?$allocator@D@2@@std@@V12@U?$less@V?$basic_string@DU?$char_traits@D@std@@V?$allocator@D@2@@std@@@2@V?$allocator@U?$pair@$$CBV?$basic_string@DU?$char_traits@D@std@@V?$allocator@D@2@@std@@V12@@std@@@2@$0A@@std@@@0@@Z 10019d70 f i main.obj
 0001:00018d80       ??$_Destroy_range@V?$allocator@H@std@@@std@@YAXPAH0AAV?$allocator@H@0@@Z 10019d80 f i main.obj
 0001:00018dc0       ??$_Umove@PAH@?$vector@HV?$allocator@H@std@@@std@@IAEPAHPAH00@Z 10019dc0 f i main.obj
 0001:00018df0       ??$fill@PAHH@std@@YAXPAH0ABH@Z 10019df0 f i main.obj
 0001:00018e20       ??$_Unchecked_move_backward@PAHPAH@stdext@@YAPAHPAH00@Z 10019e20 f i main.obj
 0001:00018e90       ??$?0H@?$allocator@V_Aux_cont@std@@@std@@QAE@ABV?$allocator@H@1@@Z 10019e90 f i main.obj
 0001:00018ea0       ??$_Allocate@H@std@@YAPAHIPAH@Z 10019ea0 f i main.obj
 0001:00018ef0       ??$?0V?$basic_string@DU?$char_traits@D@std@@V?$allocator@D@2@@std@@@?$allocator@PAV?$basic_string@DU?$char_traits@D@std@@V?$allocator@D@2@@std@@@std@@QAE@ABV?$allocator@V?$basic_string@DU?$char_traits@D@std@@V?$allocator@D@2@@std@@@1@@Z 10019ef0 f i main.obj
 0001:00018f00       ??$_Allocate@PAV?$basic_string@DU?$char_traits@D@std@@V?$allocator@D@2@@std@@@std@@YAPAPAV?$basic_string@DU?$char_traits@D@std@@V?$allocator@D@2@@0@IPAPAV10@@Z 10019f00 f i main.obj
 0001:00018f50       ??$_Destroy@PAV?$basic_string@DU?$char_traits@D@std@@V?$allocator@D@2@@std@@@std@@YAXPAPAV?$basic_string@DU?$char_traits@D@std@@V?$allocator@D@2@@0@@Z 10019f50 f i main.obj
 0001:00018f60       ??$?0PAVGeometry@osg@@@?$allocator@PAU_Node@?$_List_nod@PAVGeometry@osg@@V?$allocator@PAVGeometry@osg@@@std@@@std@@@std@@QAE@ABV?$allocator@PAVGeometry@osg@@@1@@Z 10019f60 f i main.obj
 0001:00018f70       ??$_Allocate@U_Node@?$_List_nod@PAVGeometry@osg@@V?$allocator@PAVGeometry@osg@@@std@@@std@@@std@@YAPAU_Node@?$_List_nod@PAVGeometry@osg@@V?$allocator@PAVGeometry@osg@@@std@@@0@IPAU120@@Z 10019f70 f i main.obj
 0001:00018fc0       ??$_Construct@PAU_Node@?$_List_nod@PAVGeometry@osg@@V?$allocator@PAVGeometry@osg@@@std@@@std@@PAU123@@std@@YAXPAPAU_Node@?$_List_nod@PAVGeometry@osg@@V?$allocator@PAVGeometry@osg@@@std@@@0@ABQAU120@@Z 10019fc0 f i main.obj
 0001:00019000       ??$_Destroy@PAU_Node@?$_List_nod@PAVGeometry@osg@@V?$allocator@PAVGeometry@osg@@@std@@@std@@@std@@YAXPAPAU_Node@?$_List_nod@PAVGeometry@osg@@V?$allocator@PAVGeometry@osg@@@std@@@0@@Z 1001a000 f i main.obj
 0001:00019010       ??$?0VReadResult@ReaderWriter@osgDB@@@?$allocator@PAU_Node@?$_List_nod@VReadResult@ReaderWriter@osgDB@@V?$allocator@VReadResult@ReaderWriter@osgDB@@@std@@@std@@@std@@QAE@ABV?$allocator@VReadResult@ReaderWriter@osgDB@@@1@@Z 1001a010 f i main.obj
 0001:00019020       ??$_Allocate@U_Node@?$_List_nod@VReadResult@ReaderWriter@osgDB@@V?$allocator@VReadResult@ReaderWriter@osgDB@@@std@@@std@@@std@@YAPAU_Node@?$_List_nod@VReadResult@ReaderWriter@osgDB@@V?$allocator@VReadResult@ReaderWriter@osgDB@@@std@@@0@IPAU120@@Z 1001a020 f i main.obj
 0001:00019070       ??$_Construct@PAU_Node@?$_List_nod@VReadResult@ReaderWriter@osgDB@@V?$allocator@VReadResult@ReaderWriter@osgDB@@@std@@@std@@PAU123@@std@@YAXPAPAU_Node@?$_List_nod@VReadResult@ReaderWriter@osgDB@@V?$allocator@VReadResult@ReaderWriter@osgDB@@@std@@@0@ABQAU120@@Z 1001a070 f i main.obj
 0001:000190b0       ??$_Destroy@PAU_Node@?$_List_nod@VReadResult@ReaderWriter@osgDB@@V?$allocator@VReadResult@ReaderWriter@osgDB@@@std@@@std@@@std@@YAXPAPAU_Node@?$_List_nod@VReadResult@ReaderWriter@osgDB@@V?$allocator@VReadResult@ReaderWriter@osgDB@@@std@@@0@@Z 1001a0b0 f i main.obj
 0001:000190c0       ??$?0V?$basic_string@DU?$char_traits@D@std@@V?$allocator@D@2@@std@@@?$allocator@PAU_Node@?$_List_nod@V?$basic_string@DU?$char_traits@D@std@@V?$allocator@D@2@@std@@V?$allocator@V?$basic_string@DU?$char_traits@D@std@@V?$allocator@D@2@@std@@@2@@std@@@std@@QAE@ABV?$allocator@V?$basic_string@DU?$char_traits@D@std@@V?$allocator@D@2@@std@@@1@@Z 1001a0c0 f i main.obj
 0001:000190d0       ??$_Allocate@U_Node@?$_List_nod@V?$basic_string@DU?$char_traits@D@std@@V?$allocator@D@2@@std@@V?$allocator@V?$basic_string@DU?$char_traits@D@std@@V?$allocator@D@2@@std@@@2@@std@@@std@@YAPAU_Node@?$_List_nod@V?$basic_string@DU?$char_traits@D@std@@V?$allocator@D@2@@std@@V?$allocator@V?$basic_string@DU?$char_traits@D@std@@V?$allocator@D@2@@std@@@2@@0@IPAU120@@Z 1001a0d0 f i main.obj
 0001:00019120       ??$_Construct@PAU_Node@?$_List_nod@V?$basic_string@DU?$char_traits@D@std@@V?$allocator@D@2@@std@@V?$allocator@V?$basic_string@DU?$char_traits@D@std@@V?$allocator@D@2@@std@@@2@@std@@PAU123@@std@@YAXPAPAU_Node@?$_List_nod@V?$basic_string@DU?$char_traits@D@std@@V?$allocator@D@2@@std@@V?$allocator@V?$basic_string@DU?$char_traits@D@std@@V?$allocator@D@2@@std@@@2@@0@ABQAU120@@Z 1001a120 f i main.obj
 0001:00019160       ??$_Destroy@PAU_Node@?$_List_nod@V?$basic_string@DU?$char_traits@D@std@@V?$allocator@D@2@@std@@V?$allocator@V?$basic_string@DU?$char_traits@D@std@@V?$allocator@D@2@@std@@@2@@std@@@std@@YAXPAPAU_Node@?$_List_nod@V?$basic_string@DU?$char_traits@D@std@@V?$allocator@D@2@@std@@V?$allocator@V?$basic_string@DU?$char_traits@D@std@@V?$allocator@D@2@@std@@@2@@0@@Z 1001a160 f i main.obj
 0001:00019170       ??$?0PAVZipEntry@@@?$allocator@PAU_Node@?$_List_nod@PAVZipEntry@@V?$allocator@PAVZipEntry@@@std@@@std@@@std@@QAE@ABV?$allocator@PAVZipEntry@@@1@@Z 1001a170 f i main.obj
 0001:00019180       ??$_Allocate@U_Node@?$_List_nod@PAVZipEntry@@V?$allocator@PAVZipEntry@@@std@@@std@@@std@@YAPAU_Node@?$_List_nod@PAVZipEntry@@V?$allocator@PAVZipEntry@@@std@@@0@IPAU120@@Z 1001a180 f i main.obj
 0001:000191d0       ??$_Construct@PAU_Node@?$_List_nod@PAVZipEntry@@V?$allocator@PAVZipEntry@@@std@@@std@@PAU123@@std@@YAXPAPAU_Node@?$_List_nod@PAVZipEntry@@V?$allocator@PAVZipEntry@@@std@@@0@ABQAU120@@Z 1001a1d0 f i main.obj
 0001:00019210       ??$_Destroy@PAU_Node@?$_List_nod@PAVZipEntry@@V?$allocator@PAVZipEntry@@@std@@@std@@@std@@YAXPAPAU_Node@?$_List_nod@PAVZipEntry@@V?$allocator@PAVZipEntry@@@std@@@0@@Z 1001a210 f i main.obj
 0001:00019220       ??$?0U?$pair@V?$basic_string@DU?$char_traits@D@std@@V?$allocator@D@2@@std@@V12@@std@@@?$allocator@PAU_Node@?$_List_nod@U?$pair@V?$basic_string@DU?$char_traits@D@std@@V?$allocator@D@2@@std@@V12@@std@@V?$allocator@U?$pair@V?$basic_string@DU?$char_traits@D@std@@V?$allocator@D@2@@std@@V12@@std@@@2@@std@@@std@@QAE@ABV?$allocator@U?$pair@V?$basic_string@DU?$char_traits@D@std@@V?$allocator@D@2@@std@@V12@@std@@@1@@Z 1001a220 f i main.obj
 0001:00019230       ??$_Allocate@U_Node@?$_List_nod@U?$pair@V?$basic_string@DU?$char_traits@D@std@@V?$allocator@D@2@@std@@V12@@std@@V?$allocator@U?$pair@V?$basic_string@DU?$char_traits@D@std@@V?$allocator@D@2@@std@@V12@@std@@@2@@std@@@std@@YAPAU_Node@?$_List_nod@U?$pair@V?$basic_string@DU?$char_traits@D@std@@V?$allocator@D@2@@std@@V12@@std@@V?$allocator@U?$pair@V?$basic_string@DU?$char_traits@D@std@@V?$allocator@D@2@@std@@V12@@std@@@2@@0@IPAU120@@Z 1001a230 f i main.obj
 0001:00019280       ??$_Destroy@U_Node@?$_List_nod@U?$pair@V?$basic_string@DU?$char_traits@D@std@@V?$allocator@D@2@@std@@V12@@std@@V?$allocator@U?$pair@V?$basic_string@DU?$char_traits@D@std@@V?$allocator@D@2@@std@@V12@@std@@@2@@std@@@std@@YAXPAU_Node@?$_List_nod@U?$pair@V?$basic_string@DU?$char_traits@D@std@@V?$allocator@D@2@@std@@V12@@std@@V?$allocator@U?$pair@V?$basic_string@DU?$char_traits@D@std@@V?$allocator@D@2@@std@@V12@@std@@@2@@0@@Z 1001a280 f i main.obj
 0001:00019290       ??$_Construct@PAU_Node@?$_List_nod@U?$pair@V?$basic_string@DU?$char_traits@D@std@@V?$allocator@D@2@@std@@V12@@std@@V?$allocator@U?$pair@V?$basic_string@DU?$char_traits@D@std@@V?$allocator@D@2@@std@@V12@@std@@@2@@std@@PAU123@@std@@YAXPAPAU_Node@?$_List_nod@U?$pair@V?$basic_string@DU?$char_traits@D@std@@V?$allocator@D@2@@std@@V12@@std@@V?$allocator@U?$pair@V?$basic_string@DU?$char_traits@D@std@@V?$allocator@D@2@@std@@V12@@std@@@2@@0@ABQAU120@@Z 1001a290 f i main.obj
 0001:000192d0       ??$_Destroy@PAU_Node@?$_List_nod@U?$pair@V?$basic_string@DU?$char_traits@D@std@@V?$allocator@D@2@@std@@V12@@std@@V?$allocator@U?$pair@V?$basic_string@DU?$char_traits@D@std@@V?$allocator@D@2@@std@@V12@@std@@@2@@std@@@std@@YAXPAPAU_Node@?$_List_nod@U?$pair@V?$basic_string@DU?$char_traits@D@std@@V?$allocator@D@2@@std@@V12@@std@@V?$allocator@U?$pair@V?$basic_string@DU?$char_traits@D@std@@V?$allocator@D@2@@std@@V12@@std@@@2@@0@@Z 1001a2d0 f i main.obj
 0001:000192e0       ??$_Allocate@V_Aux_cont@std@@@std@@YAPAV_Aux_cont@0@IPAV10@@Z 1001a2e0 f i main.obj
 0001:00019330       ??$?0U?$pair@$$CBV?$basic_string@DU?$char_traits@D@std@@V?$allocator@D@2@@std@@V12@@std@@@?$allocator@U_Node@?$_Tree_nod@V?$_Tmap_traits@V?$basic_string@DU?$char_traits@D@std@@V?$allocator@D@2@@std@@V12@U?$less@V?$basic_string@DU?$char_traits@D@std@@V?$allocator@D@2@@std@@@2@V?$allocator@U?$pair@$$CBV?$basic_string@DU?$char_traits@D@std@@V?$allocator@D@2@@std@@V12@@std@@@2@$0A@@std@@@std@@@std@@QAE@ABV?$allocator@U?$pair@$$CBV?$basic_string@DU?$char_traits@D@std@@V?$allocator@D@2@@std@@V12@@std@@@1@@Z 1001a330 f i main.obj
 0001:00019340       ??$_Allocate@U_Node@?$_Tree_nod@V?$_Tmap_traits@V?$basic_string@DU?$char_traits@D@std@@V?$allocator@D@2@@std@@V12@U?$less@V?$basic_string@DU?$char_traits@D@std@@V?$allocator@D@2@@std@@@2@V?$allocator@U?$pair@$$CBV?$basic_string@DU?$char_traits@D@std@@V?$allocator@D@2@@std@@V12@@std@@@2@$0A@@std@@@std@@@std@@YAPAU_Node@?$_Tree_nod@V?$_Tmap_traits@V?$basic_string@DU?$char_traits@D@std@@V?$allocator@D@2@@std@@V12@U?$less@V?$basic_string@DU?$char_traits@D@std@@V?$allocator@D@2@@std@@@2@V?$allocator@U?$pair@$$CBV?$basic_string@DU?$char_traits@D@std@@V?$allocator@D@2@@std@@V12@@std@@@2@$0A@@std@@@0@IPAU120@@Z 1001a340 f i main.obj
 0001:00019390       ??$_Destroy@U_Node@?$_Tree_nod@V?$_Tmap_traits@V?$basic_string@DU?$char_traits@D@std@@V?$allocator@D@2@@std@@V12@U?$less@V?$basic_string@DU?$char_traits@D@std@@V?$allocator@D@2@@std@@@2@V?$allocator@U?$pair@$$CBV?$basic_string@DU?$char_traits@D@std@@V?$allocator@D@2@@std@@V12@@std@@@2@$0A@@std@@@std@@@std@@YAXPAU_Node@?$_Tree_nod@V?$_Tmap_traits@V?$basic_string@DU?$char_traits@D@std@@V?$allocator@D@2@@std@@V12@U?$less@V?$basic_string@DU?$char_traits@D@std@@V?$allocator@D@2@@std@@@2@V?$allocator@U?$pair@$$CBV?$basic_string@DU?$char_traits@D@std@@V?$allocator@D@2@@std@@V12@@std@@@2@$0A@@std@@@0@@Z 1001a390 f i main.obj
 0001:000193a0       ??$_Construct@PAU_Node@?$_Tree_nod@V?$_Tmap_traits@V?$basic_string@DU?$char_traits@D@std@@V?$allocator@D@2@@std@@V12@U?$less@V?$basic_string@DU?$char_traits@D@std@@V?$allocator@D@2@@std@@@2@V?$allocator@U?$pair@$$CBV?$basic_string@DU?$char_traits@D@std@@V?$allocator@D@2@@std@@V12@@std@@@2@$0A@@std@@@std@@PAU123@@std@@YAXPAPAU_Node@?$_Tree_nod@V?$_Tmap_traits@V?$basic_string@DU?$char_traits@D@std@@V?$allocator@D@2@@std@@V12@U?$less@V?$basic_string@DU?$char_traits@D@std@@V?$allocator@D@2@@std@@@2@V?$allocator@U?$pair@$$CBV?$basic_string@DU?$char_traits@D@std@@V?$allocator@D@2@@std@@V12@@std@@@2@$0A@@std@@@0@ABQAU120@@Z 1001a3a0 f i main.obj
 0001:000193e0       ??$_Construct@PAVGeometry@osg@@PAV12@@std@@YAXPAPAVGeometry@osg@@ABQAV12@@Z 1001a3e0 f i main.obj
 0001:00019420       ??$?0PAVGeometry@osg@@@?$allocator@U_Node@?$_List_nod@PAVGeometry@osg@@V?$allocator@PAVGeometry@osg@@@std@@@std@@@std@@QAE@ABV?$allocator@PAVGeometry@osg@@@1@@Z 1001a420 f i main.obj
 0001:00019430       ??$_Destroy@U_Node@?$_List_nod@PAVGeometry@osg@@V?$allocator@PAVGeometry@osg@@@std@@@std@@@std@@YAXPAU_Node@?$_List_nod@PAVGeometry@osg@@V?$allocator@PAVGeometry@osg@@@std@@@0@@Z 1001a430 f i main.obj
 0001:00019440       ??$?0VReadResult@ReaderWriter@osgDB@@@?$allocator@U_Node@?$_List_nod@VReadResult@ReaderWriter@osgDB@@V?$allocator@VReadResult@ReaderWriter@osgDB@@@std@@@std@@@std@@QAE@ABV?$allocator@VReadResult@ReaderWriter@osgDB@@@1@@Z 1001a440 f i main.obj
 0001:00019450       ??$_Construct@VReadResult@ReaderWriter@osgDB@@V123@@std@@YAXPAVReadResult@ReaderWriter@osgDB@@ABV123@@Z 1001a450 f i main.obj
 0001:000194d0       ??$_Destroy@U_Node@?$_List_nod@VReadResult@ReaderWriter@osgDB@@V?$allocator@VReadResult@ReaderWriter@osgDB@@@std@@@std@@@std@@YAXPAU_Node@?$_List_nod@VReadResult@ReaderWriter@osgDB@@V?$allocator@VReadResult@ReaderWriter@osgDB@@@std@@@0@@Z 1001a4d0 f i main.obj
 0001:000194e0       ??$?0V?$basic_string@DU?$char_traits@D@std@@V?$allocator@D@2@@std@@@?$allocator@U_Node@?$_List_nod@V?$basic_string@DU?$char_traits@D@std@@V?$allocator@D@2@@std@@V?$allocator@V?$basic_string@DU?$char_traits@D@std@@V?$allocator@D@2@@std@@@2@@std@@@std@@QAE@ABV?$allocator@V?$basic_string@DU?$char_traits@D@std@@V?$allocator@D@2@@std@@@1@@Z 1001a4e0 f i main.obj
 0001:000194f0       ??$_Destroy@U_Node@?$_List_nod@V?$basic_string@DU?$char_traits@D@std@@V?$allocator@D@2@@std@@V?$allocator@V?$basic_string@DU?$char_traits@D@std@@V?$allocator@D@2@@std@@@2@@std@@@std@@YAXPAU_Node@?$_List_nod@V?$basic_string@DU?$char_traits@D@std@@V?$allocator@D@2@@std@@V?$allocator@V?$basic_string@DU?$char_traits@D@std@@V?$allocator@D@2@@std@@@2@@0@@Z 1001a4f0 f i main.obj
 0001:00019500       ??$?0PAVZipEntry@@@?$allocator@U_Node@?$_List_nod@PAVZipEntry@@V?$allocator@PAVZipEntry@@@std@@@std@@@std@@QAE@ABV?$allocator@PAVZipEntry@@@1@@Z 1001a500 f i main.obj
 0001:00019510       ??$_Construct@PAVZipEntry@@PAV1@@std@@YAXPAPAVZipEntry@@ABQAV1@@Z 1001a510 f i main.obj
 0001:00019550       ??$_Destroy@U_Node@?$_List_nod@PAVZipEntry@@V?$allocator@PAVZipEntry@@@std@@@std@@@std@@YAXPAU_Node@?$_List_nod@PAVZipEntry@@V?$allocator@PAVZipEntry@@@std@@@0@@Z 1001a550 f i main.obj
 0001:00019560       ??$?0U?$pair@V?$basic_string@DU?$char_traits@D@std@@V?$allocator@D@2@@std@@V12@@std@@@?$allocator@U_Node@?$_List_nod@U?$pair@V?$basic_string@DU?$char_traits@D@std@@V?$allocator@D@2@@std@@V12@@std@@V?$allocator@U?$pair@V?$basic_string@DU?$char_traits@D@std@@V?$allocator@D@2@@std@@V12@@std@@@2@@std@@@std@@QAE@ABV?$allocator@U?$pair@V?$basic_string@DU?$char_traits@D@std@@V?$allocator@D@2@@std@@V12@@std@@@1@@Z 1001a560 f i main.obj
 0001:00019570       ??$_Construct@U?$pair@V?$basic_string@DU?$char_traits@D@std@@V?$allocator@D@2@@std@@V12@@std@@U12@@std@@YAXPAU?$pair@V?$basic_string@DU?$char_traits@D@std@@V?$allocator@D@2@@std@@V12@@0@ABU10@@Z 1001a570 f i main.obj
 0001:000195f0       ??$?0PAVGeometry@osg@@@?$allocator@V_Aux_cont@std@@@std@@QAE@ABV?$allocator@PAVGeometry@osg@@@1@@Z 1001a5f0 f i main.obj
 0001:00019600       ??$?0VReadResult@ReaderWriter@osgDB@@@?$allocator@V_Aux_cont@std@@@std@@QAE@ABV?$allocator@VReadResult@ReaderWriter@osgDB@@@1@@Z 1001a600 f i main.obj
 0001:00019610       ??$?0PAVZipEntry@@@?$allocator@V_Aux_cont@std@@@std@@QAE@ABV?$allocator@PAVZipEntry@@@1@@Z 1001a610 f i main.obj
 0001:00019620       ??$?0U?$pair@V?$basic_string@DU?$char_traits@D@std@@V?$allocator@D@2@@std@@V12@@std@@@?$allocator@V_Aux_cont@std@@@std@@QAE@ABV?$allocator@U?$pair@V?$basic_string@DU?$char_traits@D@std@@V?$allocator@D@2@@std@@V12@@std@@@1@@Z 1001a620 f i main.obj
 0001:00019630       ??$?0U?$pair@$$CBV?$basic_string@DU?$char_traits@D@std@@V?$allocator@D@2@@std@@V12@@std@@@?$allocator@V_Aux_cont@std@@@std@@QAE@ABV?$allocator@U?$pair@$$CBV?$basic_string@DU?$char_traits@D@std@@V?$allocator@D@2@@std@@V12@@std@@@1@@Z 1001a630 f i main.obj
 0001:00019640       ??0bad_alloc@std@@QAE@ABV01@@Z 1001a640 f i main.obj
 0001:00019670       ??_G?$basic_string@DU?$char_traits@D@std@@V?$allocator@D@2@@std@@QAEPAXI@Z 1001a670 f i main.obj
 0001:000196a0       ??_G_Node@?$_List_nod@U?$pair@V?$basic_string@DU?$char_traits@D@std@@V?$allocator@D@2@@std@@V12@@std@@V?$allocator@U?$pair@V?$basic_string@DU?$char_traits@D@std@@V?$allocator@D@2@@std@@V12@@std@@@2@@std@@QAEPAXI@Z 1001a6a0 f i main.obj
 0001:000196d0       ??_G_Node@?$_Tree_nod@V?$_Tmap_traits@V?$basic_string@DU?$char_traits@D@std@@V?$allocator@D@2@@std@@V12@U?$less@V?$basic_string@DU?$char_traits@D@std@@V?$allocator@D@2@@std@@@2@V?$allocator@U?$pair@$$CBV?$basic_string@DU?$char_traits@D@std@@V?$allocator@D@2@@std@@V12@@std@@@2@$0A@@std@@@std@@QAEPAXI@Z 1001a6d0 f i main.obj
 0001:00019700       ??_G_Node@?$_List_nod@VReadResult@ReaderWriter@osgDB@@V?$allocator@VReadResult@ReaderWriter@osgDB@@@std@@@std@@QAEPAXI@Z 1001a700 f i main.obj
 0001:00019730       ??_G_Node@?$_List_nod@V?$basic_string@DU?$char_traits@D@std@@V?$allocator@D@2@@std@@V?$allocator@V?$basic_string@DU?$char_traits@D@std@@V?$allocator@D@2@@std@@@2@@std@@QAEPAXI@Z 1001a730 f i main.obj
 0001:00019760       ??1_Node@?$_List_nod@U?$pair@V?$basic_string@DU?$char_traits@D@std@@V?$allocator@D@2@@std@@V12@@std@@V?$allocator@U?$pair@V?$basic_string@DU?$char_traits@D@std@@V?$allocator@D@2@@std@@V12@@std@@@2@@std@@QAE@XZ 1001a760 f i main.obj
 0001:00019780       ??1_Node@?$_Tree_nod@V?$_Tmap_traits@V?$basic_string@DU?$char_traits@D@std@@V?$allocator@D@2@@std@@V12@U?$less@V?$basic_string@DU?$char_traits@D@std@@V?$allocator@D@2@@std@@@2@V?$allocator@U?$pair@$$CBV?$basic_string@DU?$char_traits@D@std@@V?$allocator@D@2@@std@@V12@@std@@@2@$0A@@std@@@std@@QAE@XZ 1001a780 f i main.obj
 0001:000197a0       ??1_Node@?$_List_nod@VReadResult@ReaderWriter@osgDB@@V?$allocator@VReadResult@ReaderWriter@osgDB@@@std@@@std@@QAE@XZ 1001a7a0 f i main.obj
 0001:000197c0       ??1_Node@?$_List_nod@V?$basic_string@DU?$char_traits@D@std@@V?$allocator@D@2@@std@@V?$allocator@V?$basic_string@DU?$char_traits@D@std@@V?$allocator@D@2@@std@@@2@@std@@QAE@XZ 1001a7c0 f i main.obj
 0001:000197e0       ??A?$vector@HV?$allocator@H@std@@@std@@QAEAAHI@Z 1001a7e0 f i main.obj
 0001:00019810       ??0?$pair@HH@std@@QAE@ABH0@Z 1001a810 f i main.obj
 0001:00019840       ??$ProcessTriStrip@VDrawElementsUShort@osg@@@Triangulator@@AAEXPAVDrawElementsUShort@osg@@V?$vector@HV?$allocator@H@std@@@std@@@Z 1001a840 f i main.obj
 0001:000199e0       ??$ProcessTriFan@VDrawElementsUShort@osg@@@Triangulator@@AAEXPAVDrawElementsUShort@osg@@V?$vector@HV?$allocator@H@std@@@std@@@Z 1001a9e0 f i main.obj
 0001:00019b10       ??$ProcessTriStrip@VDrawElementsUByte@osg@@@Triangulator@@AAEXPAVDrawElementsUByte@osg@@V?$vector@HV?$allocator@H@std@@@std@@@Z 1001ab10 f i main.obj
 0001:00019ca0       ??$ProcessTriFan@VDrawElementsUByte@osg@@@Triangulator@@AAEXPAVDrawElementsUByte@osg@@V?$vector@HV?$allocator@H@std@@@std@@@Z 1001aca0 f i main.obj
 0001:00019dd0       ??$_Checked_base@V?$_Iterator@$00@?$list@V?$basic_string@DU?$char_traits@D@std@@V?$allocator@D@2@@std@@V?$allocator@V?$basic_string@DU?$char_traits@D@std@@V?$allocator@D@2@@std@@@2@@std@@@std@@YA?AV?$_Iterator@$0A@@?$list@V?$basic_string@DU?$char_traits@D@std@@V?$allocator@D@2@@std@@V?$allocator@V?$basic_string@DU?$char_traits@D@std@@V?$allocator@D@2@@std@@@2@@0@AAV?$_Iterator@$00@20@@Z 1001add0 f i main.obj
 0001:00019df0       ??$_Find@V?$_Iterator@$0A@@?$list@V?$basic_string@DU?$char_traits@D@std@@V?$allocator@D@2@@std@@V?$allocator@V?$basic_string@DU?$char_traits@D@std@@V?$allocator@D@2@@std@@@2@@std@@V?$basic_string@DU?$char_traits@D@std@@V?$allocator@D@2@@3@@std@@YA?AV?$_Iterator@$0A@@?$list@V?$basic_string@DU?$char_traits@D@std@@V?$allocator@D@2@@std@@V?$allocator@V?$basic_string@DU?$char_traits@D@std@@V?$allocator@D@2@@std@@@2@@0@V120@0ABV?$basic_string@DU?$char_traits@D@std@@V?$allocator@D@2@@0@@Z 1001adf0 f i main.obj
 0001:00019e50       ??$_Checked_assign_from_base@V?$_Iterator@$00@?$list@V?$basic_string@DU?$char_traits@D@std@@V?$allocator@D@2@@std@@V?$allocator@V?$basic_string@DU?$char_traits@D@std@@V?$allocator@D@2@@std@@@2@@std@@V?$_Iterator@$0A@@23@@std@@YAXAAV?$_Iterator@$00@?$list@V?$basic_string@DU?$char_traits@D@std@@V?$allocator@D@2@@std@@V?$allocator@V?$basic_string@DU?$char_traits@D@std@@V?$allocator@D@2@@std@@@2@@0@ABV?$_Iterator@$0A@@20@@Z 1001ae50 f i main.obj
 0001:00019e70       ??$_Iter_cat@V?$_String_iterator@_WU?$char_traits@_W@std@@V?$allocator@_W@2@@std@@@std@@YA?AUrandom_access_iterator_tag@0@ABV?$_String_iterator@_WU?$char_traits@_W@std@@V?$allocator@_W@2@@0@@Z 1001ae70 f i main.obj
 0001:00019e80       ??$_Construct@V?$_String_iterator@_WU?$char_traits@_W@std@@V?$allocator@_W@2@@std@@@?$basic_string@DU?$char_traits@D@std@@V?$allocator@D@2@@std@@QAEXV?$_String_iterator@_WU?$char_traits@_W@std@@V?$allocator@_W@2@@1@0Uforward_iterator_tag@1@@Z 1001ae80 f i main.obj
 0001:00019f70       ??$_Iter_cat@V?$_String_iterator@DU?$char_traits@D@std@@V?$allocator@D@2@@std@@@std@@YA?AUrandom_access_iterator_tag@0@ABV?$_String_iterator@DU?$char_traits@D@std@@V?$allocator@D@2@@0@@Z 1001af70 f i main.obj
 0001:00019f80       ??$_Construct@V?$_String_iterator@DU?$char_traits@D@std@@V?$allocator@D@2@@std@@@?$basic_string@_WU?$char_traits@_W@std@@V?$allocator@_W@2@@std@@QAEXV?$_String_iterator@DU?$char_traits@D@std@@V?$allocator@D@2@@1@0Uforward_iterator_tag@1@@Z 1001af80 f i main.obj
 0001:0001a070       ??D?$_String_iterator@DU?$char_traits@D@std@@V?$allocator@D@2@@std@@QBEAADXZ 1001b070 f i main.obj
 0001:0001a090       ??D?$_String_const_iterator@DU?$char_traits@D@std@@V?$allocator@D@2@@std@@QBEABDXZ 1001b090 f i main.obj
 0001:0001a0e0       ?_Has_container@_Iterator_base_secure@std@@QBE_NXZ 1001b0e0 f i main.obj
 0001:0001a100       ??$_Checked_base@PAI@std@@YAPAIAAPAI@Z 1001b100 f i main.obj
 0001:0001a120       ??$_Iter_random@PAIPAI@std@@YA?AUrandom_access_iterator_tag@0@ABQAI0@Z 1001b120 f i main.obj
 0001:0001a130       ??$_Ptr_cat@PAIPAI@std@@YA?AU_Scalar_ptr_iterator_tag@0@AAPAI0@Z 1001b130 f i main.obj
 0001:0001a140       ??$_Copy_opt@PAIPAIUrandom_access_iterator_tag@std@@@std@@YAPAIPAI00Urandom_access_iterator_tag@0@U_Scalar_ptr_iterator_tag@0@U_Range_checked_iterator_tag@0@@Z 1001b140 f i main.obj
 0001:0001a190       ??$unchecked_uninitialized_copy@V?$_Vector_const_iterator@HV?$allocator@H@std@@@std@@PAHV?$allocator@H@2@@stdext@@YAPAHV?$_Vector_const_iterator@HV?$allocator@H@std@@@std@@0PAHAAV?$allocator@H@2@@Z 1001b190 f i main.obj
 0001:0001a1f0       ??$_Fill@PAHH@std@@YAXPAH0ABH@Z 1001b1f0 f i main.obj
 0001:0001a220       ??$_Destroy_range@V?$allocator@I@std@@@std@@YAXPAI0AAV?$allocator@I@0@U_Scalar_ptr_iterator_tag@0@@Z 1001b220 f i main.obj
 0001:0001a230       ??$_Uninit_fill_n@PAIIIV?$allocator@I@std@@@std@@YAXPAIIABIAAV?$allocator@I@0@U_Scalar_ptr_iterator_tag@0@U_Range_checked_iterator_tag@0@@Z 1001b230 f i main.obj
 0001:0001a250       ??$_Ptr_cat@PAHPAH@std@@YA?AU_Scalar_ptr_iterator_tag@0@AAPAH0@Z 1001b250 f i main.obj
 0001:0001a260       ??$_Uninit_fill_n@PAHIHV?$allocator@H@std@@@std@@YAXPAHIABHAAV?$allocator@H@0@U_Scalar_ptr_iterator_tag@0@U_Range_checked_iterator_tag@0@@Z 1001b260 f i main.obj
 0001:0001a280       ??$_Checked_base@PAPAV?$basic_string@DU?$char_traits@D@std@@V?$allocator@D@2@@std@@@std@@YAPAPAV?$basic_string@DU?$char_traits@D@std@@V?$allocator@D@2@@0@AAPAPAV10@@Z 1001b280 f i main.obj
 0001:0001a2a0       ??$_Ptr_cat@PAPAV?$basic_string@DU?$char_traits@D@std@@V?$allocator@D@2@@std@@PAPAV12@@std@@YA?AU_Scalar_ptr_iterator_tag@0@AAPAPAV?$basic_string@DU?$char_traits@D@std@@V?$allocator@D@2@@0@0@Z 1001b2a0 f i main.obj
 0001:0001a2b0       ??$_Uninit_copy@PAPAV?$basic_string@DU?$char_traits@D@std@@V?$allocator@D@2@@std@@PAPAV12@V?$allocator@PAV?$basic_string@DU?$char_traits@D@std@@V?$allocator@D@2@@std@@@2@@std@@YAPAPAV?$basic_string@DU?$char_traits@D@std@@V?$allocator@D@2@@0@PAPAV10@00AAV?$allocator@PAV?$basic_string@DU?$char_traits@D@std@@V?$allocator@D@2@@std@@@0@U_Scalar_ptr_iterator_tag@0@U_Range_checked_iterator_tag@0@@Z 1001b2b0 f i main.obj
 0001:0001a300       ??$_Uninit_fill_n@PAPAV?$basic_string@DU?$char_traits@D@std@@V?$allocator@D@2@@std@@IPAV12@V?$allocator@PAV?$basic_string@DU?$char_traits@D@std@@V?$allocator@D@2@@std@@@2@@std@@YAXPAPAV?$basic_string@DU?$char_traits@D@std@@V?$allocator@D@2@@0@IABQAV10@AAV?$allocator@PAV?$basic_string@DU?$char_traits@D@std@@V?$allocator@D@2@@std@@@0@U_Scalar_ptr_iterator_tag@0@U_Range_checked_iterator_tag@0@@Z 1001b300 f i main.obj
 0001:0001a320       ??$_Destroy_range@V?$allocator@PAV?$basic_string@DU?$char_traits@D@std@@V?$allocator@D@2@@std@@@std@@@std@@YAXPAPAV?$basic_string@DU?$char_traits@D@std@@V?$allocator@D@2@@0@0AAV?$allocator@PAV?$basic_string@DU?$char_traits@D@std@@V?$allocator@D@2@@std@@@0@U_Scalar_ptr_iterator_tag@0@@Z 1001b320 f i main.obj
 0001:0001a330       ??$_Unchecked_uninitialized_move@PAIPAIV?$allocator@I@std@@@stdext@@YAPAIPAI00AAV?$allocator@I@std@@@Z 1001b330 f i main.obj
 0001:0001a380       ??$_Fill@PAII@std@@YAXPAI0ABI@Z 1001b380 f i main.obj
 0001:0001a3b0       ??$_Move_cat@PAI@std@@YA?AU_Undefined_move_tag@0@ABQAI@Z 1001b3b0 f i main.obj
 0001:0001a3c0       ??$_Move_backward_opt@PAIPAIUrandom_access_iterator_tag@std@@U_Undefined_move_tag@2@@std@@YAPAIPAI00Urandom_access_iterator_tag@0@U_Undefined_move_tag@0@U_Range_checked_iterator_tag@0@@Z 1001b3c0 f i main.obj
 0001:0001a410       ??$_Destroy_range@V?$allocator@H@std@@@std@@YAXPAH0AAV?$allocator@H@0@U_Scalar_ptr_iterator_tag@0@@Z 1001b410 f i main.obj
 0001:0001a420       ??$_Unchecked_uninitialized_move@PAHPAHV?$allocator@H@std@@@stdext@@YAPAHPAH00AAV?$allocator@H@std@@@Z 1001b420 f i main.obj
 0001:0001a470       ??$_Checked_base@PAH@std@@YAPAHAAPAH@Z 1001b470 f i main.obj
 0001:0001a490       ??$_Iter_random@PAHPAH@std@@YA?AUrandom_access_iterator_tag@0@ABQAH0@Z 1001b490 f i main.obj
 0001:0001a4a0       ??$_Move_cat@PAH@std@@YA?AU_Undefined_move_tag@0@ABQAH@Z 1001b4a0 f i main.obj
 0001:0001a4b0       ??$_Move_backward_opt@PAHPAHUrandom_access_iterator_tag@std@@U_Undefined_move_tag@2@@std@@YAPAHPAH00Urandom_access_iterator_tag@0@U_Undefined_move_tag@0@U_Range_checked_iterator_tag@0@@Z 1001b4b0 f i main.obj
 0001:0001a500       ?_Checked_iterator_assign_from_base@?$_Iterator@$00@?$list@V?$basic_string@DU?$char_traits@D@std@@V?$allocator@D@2@@std@@V?$allocator@V?$basic_string@DU?$char_traits@D@std@@V?$allocator@D@2@@std@@@2@@std@@QAEXV?$_Iterator@$0A@@23@@Z 1001b500 f i main.obj
 0001:0001a530       ??D?$_String_iterator@_WU?$char_traits@_W@std@@V?$allocator@_W@2@@std@@QBEAA_WXZ 1001b530 f i main.obj
 0001:0001a550       ??E?$_String_iterator@_WU?$char_traits@_W@std@@V?$allocator@_W@2@@std@@QAEAAV01@XZ 1001b550 f i main.obj
 0001:0001a570       ??9?$_String_const_iterator@_WU?$char_traits@_W@std@@V?$allocator@_W@2@@std@@QBE_NABV01@@Z 1001b570 f i main.obj
 0001:0001a5a0       ??9?$_String_const_iterator@DU?$char_traits@D@std@@V?$allocator@D@2@@std@@QBE_NABV01@@Z 1001b5a0 f i main.obj
 0001:0001a5d0       ??E?$_String_iterator@DU?$char_traits@D@std@@V?$allocator@D@2@@std@@QAEAAV01@XZ 1001b5d0 f i main.obj
 0001:0001a5f0       ??D?$_Iterator@$0A@@?$list@V?$basic_string@DU?$char_traits@D@std@@V?$allocator@D@2@@std@@V?$allocator@V?$basic_string@DU?$char_traits@D@std@@V?$allocator@D@2@@std@@@2@@std@@QBEAAV?$basic_string@DU?$char_traits@D@std@@V?$allocator@D@2@@2@XZ 1001b5f0 f i main.obj
 0001:0001a610       ??E?$_Iterator@$0A@@?$list@V?$basic_string@DU?$char_traits@D@std@@V?$allocator@D@2@@std@@V?$allocator@V?$basic_string@DU?$char_traits@D@std@@V?$allocator@D@2@@std@@@2@@std@@QAEAAV012@XZ 1001b610 f i main.obj
 0001:0001a630       ??9?$_Const_iterator@$0A@@?$list@V?$basic_string@DU?$char_traits@D@std@@V?$allocator@D@2@@std@@V?$allocator@V?$basic_string@DU?$char_traits@D@std@@V?$allocator@D@2@@std@@@2@@std@@QBE_NABV012@@Z 1001b630 f i main.obj
 0001:0001a660       ??D?$_String_const_iterator@_WU?$char_traits@_W@std@@V?$allocator@_W@2@@std@@QBEAB_WXZ 1001b660 f i main.obj
 0001:0001a6c0       ??E?$_String_const_iterator@_WU?$char_traits@_W@std@@V?$allocator@_W@2@@std@@QAEAAV01@XZ 1001b6c0 f i main.obj
 0001:0001a720       ??8?$_String_const_iterator@_WU?$char_traits@_W@std@@V?$allocator@_W@2@@std@@QBE_NABV01@@Z 1001b720 f i main.obj
 0001:0001a770       ?_Same_container@_Iterator_base_secure@std@@QBE_NABV12@@Z 1001b770 f i main.obj
 0001:0001a790       ??E?$_String_const_iterator@DU?$char_traits@D@std@@V?$allocator@D@2@@std@@QAEAAV01@XZ 1001b790 f i main.obj
 0001:0001a7f0       ??8?$_String_const_iterator@DU?$char_traits@D@std@@V?$allocator@D@2@@std@@QBE_NABV01@@Z 1001b7f0 f i main.obj
 0001:0001a840       ??D?$_Const_iterator@$0A@@?$list@V?$basic_string@DU?$char_traits@D@std@@V?$allocator@D@2@@std@@V?$allocator@V?$basic_string@DU?$char_traits@D@std@@V?$allocator@D@2@@std@@@2@@std@@QBEABV?$basic_string@DU?$char_traits@D@std@@V?$allocator@D@2@@2@XZ 1001b840 f i main.obj
 0001:0001a890       ??E?$_Const_iterator@$0A@@?$list@V?$basic_string@DU?$char_traits@D@std@@V?$allocator@D@2@@std@@V?$allocator@V?$basic_string@DU?$char_traits@D@std@@V?$allocator@D@2@@std@@@2@@std@@QAEAAV012@XZ 1001b890 f i main.obj
 0001:0001a8f0       ??8?$_Const_iterator@$0A@@?$list@V?$basic_string@DU?$char_traits@D@std@@V?$allocator@D@2@@std@@V?$allocator@V?$basic_string@DU?$char_traits@D@std@@V?$allocator@D@2@@std@@@2@@std@@QBE_NABV012@@Z 1001b8f0 f i main.obj
 0001:0001a940       ??$_Checked_base@V?$_Iterator@$00@?$list@V?$basic_string@DU?$char_traits@D@std@@V?$allocator@D@2@@std@@V?$allocator@V?$basic_string@DU?$char_traits@D@std@@V?$allocator@D@2@@std@@@2@@std@@U_Different_checked_iterator_base_type_tag@3@@std@@YA?AV?$_Iterator@$0A@@?$list@V?$basic_string@DU?$char_traits@D@std@@V?$allocator@D@2@@std@@V?$allocator@V?$basic_string@DU?$char_traits@D@std@@V?$allocator@D@2@@std@@@2@@0@AAV?$_Iterator@$00@20@U_Different_checked_iterator_base_type_tag@0@@Z 1001b940 f i main.obj
 0001:0001a960       ??$_Distance@V?$_String_iterator@_WU?$char_traits@_W@std@@V?$allocator@_W@2@@std@@I@std@@YAXV?$_String_iterator@_WU?$char_traits@_W@std@@V?$allocator@_W@2@@0@0AAI@Z 1001b960 f i main.obj
 0001:0001a9a0       ??$_Distance@V?$_String_iterator@DU?$char_traits@D@std@@V?$allocator@D@2@@std@@I@std@@YAXV?$_String_iterator@DU?$char_traits@D@std@@V?$allocator@D@2@@0@0AAI@Z 1001b9a0 f i main.obj
 0001:0001a9e0       ??$_Checked_base@PAI@std@@YAPAIAAPAIU_Unchanged_checked_iterator_base_type_tag@0@@Z 1001b9e0 f i main.obj
 0001:0001a9f0       ??$_Checked_base@V?$_Vector_const_iterator@HV?$allocator@H@std@@@std@@@std@@YAPBHAAV?$_Vector_const_iterator@HV?$allocator@H@std@@@0@@Z 1001b9f0 f i main.obj
 0001:0001aa10       ??$_Ptr_cat@V?$_Vector_const_iterator@HV?$allocator@H@std@@@std@@PAH@std@@YA?AU_Scalar_ptr_iterator_tag@0@AAV?$_Vector_const_iterator@HV?$allocator@H@std@@@0@AAPAH@Z 1001ba10 f i main.obj
 0001:0001aa20       ??$_Uninit_copy@PBHPAHV?$allocator@H@std@@@std@@YAPAHPBH0PAHAAV?$allocator@H@0@U_Scalar_ptr_iterator_tag@0@U_Range_checked_iterator_tag@0@@Z 1001ba20 f i main.obj
 0001:0001aa70       ??$_Uninit_move@PAIPAIV?$allocator@I@std@@U_Undefined_move_tag@2@@std@@YAPAIPAI00AAV?$allocator@I@0@U_Undefined_move_tag@0@U_Range_checked_iterator_tag@0@@Z 1001ba70 f i main.obj
 0001:0001aa90       ??$unchecked_uninitialized_copy@PAIPAIV?$allocator@I@std@@@stdext@@YAPAIPAI00AAV?$allocator@I@std@@@Z 1001ba90 f i main.obj
 0001:0001aaf0       ??$_Uninit_copy@PAIPAIV?$allocator@I@std@@@std@@YAPAIPAI00AAV?$allocator@I@0@U_Scalar_ptr_iterator_tag@0@U_Range_checked_iterator_tag@0@@Z 1001baf0 f i main.obj
 0001:0001ab40       ??$unchecked_fill_n@PAIII@stdext@@YAXPAIIABI@Z 1001bb40 f i main.obj
 0001:0001ab80       ??$unchecked_fill_n@PAHIH@stdext@@YAXPAHIABH@Z 1001bb80 f i main.obj
 0001:0001abc0       ??$_Iter_cat@PAH@std@@YA?AUrandom_access_iterator_tag@0@ABQAH@Z 1001bbc0 f i main.obj
 0001:0001abd0       ??$_Checked_base@PAPAV?$basic_string@DU?$char_traits@D@std@@V?$allocator@D@2@@std@@@std@@YAPAPAV?$basic_string@DU?$char_traits@D@std@@V?$allocator@D@2@@0@AAPAPAV10@U_Unchanged_checked_iterator_base_type_tag@0@@Z 1001bbd0 f i main.obj
 0001:0001abe0       ??$unchecked_fill_n@PAPAV?$basic_string@DU?$char_traits@D@std@@V?$allocator@D@2@@std@@IPAV12@@stdext@@YAXPAPAV?$basic_string@DU?$char_traits@D@std@@V?$allocator@D@2@@std@@IABQAV12@@Z 1001bbe0 f i main.obj
 0001:0001ac20       ??$_Copy_backward_opt@PAIPAIUrandom_access_iterator_tag@std@@@std@@YAPAIPAI00Urandom_access_iterator_tag@0@U_Scalar_ptr_iterator_tag@0@U_Range_checked_iterator_tag@0@@Z 1001bc20 f i main.obj
 0001:0001ac70       ??$_Uninit_move@PAHPAHV?$allocator@H@std@@U_Undefined_move_tag@2@@std@@YAPAHPAH00AAV?$allocator@H@0@U_Undefined_move_tag@0@U_Range_checked_iterator_tag@0@@Z 1001bc70 f i main.obj
 0001:0001ac90       ??$_Checked_base@PAH@std@@YAPAHAAPAHU_Unchanged_checked_iterator_base_type_tag@0@@Z 1001bc90 f i main.obj
 0001:0001aca0       ??$_Copy_backward_opt@PAHPAHUrandom_access_iterator_tag@std@@@std@@YAPAHPAH00Urandom_access_iterator_tag@0@U_Scalar_ptr_iterator_tag@0@U_Range_checked_iterator_tag@0@@Z 1001bca0 f i main.obj
 0001:0001acf0       ??$unchecked_uninitialized_copy@PAHPAHV?$allocator@H@std@@@stdext@@YAPAHPAH00AAV?$allocator@H@std@@@Z 1001bcf0 f i main.obj
 0001:0001ad50       ?_Checked_iterator_base@?$_Iterator@$00@?$list@V?$basic_string@DU?$char_traits@D@std@@V?$allocator@D@2@@std@@V?$allocator@V?$basic_string@DU?$char_traits@D@std@@V?$allocator@D@2@@std@@@2@@std@@QBE?AV?$_Iterator@$0A@@23@XZ 1001bd50 f i main.obj
 0001:0001ad90       ??0?$_Iterator@$0A@@?$list@V?$basic_string@DU?$char_traits@D@std@@V?$allocator@D@2@@std@@V?$allocator@V?$basic_string@DU?$char_traits@D@std@@V?$allocator@D@2@@std@@@2@@std@@QAE@PAU_Node@?$_List_nod@V?$basic_string@DU?$char_traits@D@std@@V?$allocator@D@2@@std@@V?$allocator@V?$basic_string@DU?$char_traits@D@std@@V?$allocator@D@2@@std@@@2@@2@PBV12@@Z 1001bd90 f i main.obj
 0001:0001adb0       ??0?$_Const_iterator@$0A@@?$list@V?$basic_string@DU?$char_traits@D@std@@V?$allocator@D@2@@std@@V?$allocator@V?$basic_string@DU?$char_traits@D@std@@V?$allocator@D@2@@std@@@2@@std@@QAE@PAU_Node@?$_List_nod@V?$basic_string@DU?$char_traits@D@std@@V?$allocator@D@2@@std@@V?$allocator@V?$basic_string@DU?$char_traits@D@std@@V?$allocator@D@2@@std@@@2@@2@PBV12@@Z 1001bdb0 f i main.obj
 0001:0001adf0       ??$_Distance2@V?$_String_iterator@_WU?$char_traits@_W@std@@V?$allocator@_W@2@@std@@I@std@@YAXV?$_String_iterator@_WU?$char_traits@_W@std@@V?$allocator@_W@2@@0@0AAIUrandom_access_iterator_tag@0@@Z 1001bdf0 f i main.obj
 0001:0001ae10       ??$_Distance2@V?$_String_iterator@DU?$char_traits@D@std@@V?$allocator@D@2@@std@@I@std@@YAXV?$_String_iterator@DU?$char_traits@D@std@@V?$allocator@D@2@@0@0AAIUrandom_access_iterator_tag@0@@Z 1001be10 f i main.obj
 0001:0001ae30       ??$_Checked_base@V?$_Vector_const_iterator@HV?$allocator@H@std@@@std@@U_Different_checked_iterator_base_type_tag@2@@std@@YAPBHAAV?$_Vector_const_iterator@HV?$allocator@H@std@@@0@U_Different_checked_iterator_base_type_tag@0@@Z 1001be30 f i main.obj
 0001:0001ae40       ??$_Iter_cat@PAI@std@@YA?AUrandom_access_iterator_tag@0@ABQAI@Z 1001be40 f i main.obj
 0001:0001ae50       ??$_Fill_n@PAIII@std@@YAXPAIIABIUrandom_access_iterator_tag@0@U_Range_checked_iterator_tag@0@@Z 1001be50 f i main.obj
 0001:0001ae90       ??$_Fill_n@PAHIH@std@@YAXPAHIABHUrandom_access_iterator_tag@0@U_Range_checked_iterator_tag@0@@Z 1001be90 f i main.obj
 0001:0001aed0       ??$_Iter_cat@PAPAV?$basic_string@DU?$char_traits@D@std@@V?$allocator@D@2@@std@@@std@@YA?AUrandom_access_iterator_tag@0@ABQAPAV?$basic_string@DU?$char_traits@D@std@@V?$allocator@D@2@@0@@Z 1001bed0 f i main.obj
 0001:0001aee0       ??$_Fill_n@PAPAV?$basic_string@DU?$char_traits@D@std@@V?$allocator@D@2@@std@@IPAV12@@std@@YAXPAPAV?$basic_string@DU?$char_traits@D@std@@V?$allocator@D@2@@0@IABQAV10@Urandom_access_iterator_tag@0@U_Range_checked_iterator_tag@0@@Z 1001bee0 f i main.obj
 0001:0001af20       ??$_Uninit_copy@PAHPAHV?$allocator@H@std@@@std@@YAPAHPAH00AAV?$allocator@H@0@U_Scalar_ptr_iterator_tag@0@U_Range_checked_iterator_tag@0@@Z 1001bf20 f i main.obj
 0001:0001af70       ??G?$_String_iterator@_WU?$char_traits@_W@std@@V?$allocator@_W@2@@std@@QBEHABV?$_String_const_iterator@_WU?$char_traits@_W@std@@V?$allocator@_W@2@@1@@Z 1001bf70 f i main.obj
 0001:0001afa0       ??G?$_String_iterator@DU?$char_traits@D@std@@V?$allocator@D@2@@std@@QBEHABV?$_String_const_iterator@DU?$char_traits@D@std@@V?$allocator@D@2@@1@@Z 1001bfa0 f i main.obj
 0001:0001afd0       ??G?$_String_const_iterator@DU?$char_traits@D@std@@V?$allocator@D@2@@std@@QBEHABV01@@Z 1001bfd0 f i main.obj
 0001:0001b020       ?_Checked_iterator_base@?$_Vector_const_iterator@HV?$allocator@H@std@@@std@@QBEPBHXZ 1001c020 f i main.obj
 0001:0001b040       ??G?$_String_const_iterator@_WU?$char_traits@_W@std@@V?$allocator@_W@2@@std@@QBEHABV01@@Z 1001c040 f i main.obj
 0001:0001b090       ??$_Fill_n@PAIII@std@@YAXPAIIABIU_Range_checked_iterator_tag@0@@Z 1001c090 f i main.obj
 0001:0001b0c0       ??$_Fill_n@PAHIH@std@@YAXPAHIABHU_Range_checked_iterator_tag@0@@Z 1001c0c0 f i main.obj
 0001:0001b0f0       ??$_Fill_n@PAPAV?$basic_string@DU?$char_traits@D@std@@V?$allocator@D@2@@std@@IPAV12@@std@@YAXPAPAV?$basic_string@DU?$char_traits@D@std@@V?$allocator@D@2@@0@IABQAV10@U_Range_checked_iterator_tag@0@@Z 1001c0f0 f i main.obj
 0001:0001b120       ??_EDrawElementsUInt@osg@@OEM@AEPAXI@Z 1001c120 f i main.obj
 0001:0001b130       ??_EDrawElementsUByte@osg@@OEM@AEPAXI@Z 1001c130 f i main.obj
 0001:0001b140       ??_EDrawElementsUShort@osg@@OEM@AEPAXI@Z 1001c140 f i main.obj
 0001:0001b150       ??0Vec3f@osg@@QAE@MMM@Z    1001c150 f i main.obj
 0001:0001b180       ??0ObjectProperty@osgDB@@QAE@PBDH_N@Z 1001c180 f i main.obj
 0001:0001b1b0       ??0ObjectMark@osgDB@@QAE@PBDH@Z 1001c1b0 f i main.obj
 0001:0001b1e0       ??1ObjectProperty@osgDB@@QAE@XZ 1001c1e0 f i main.obj
 0001:0001b200       ??1ObjectMark@osgDB@@QAE@XZ 1001c200 f i main.obj
 0001:0001b230       ?inflate_flush@@YAHPAUinflate_blocks_state@@PAUz_stream_s@@H@Z 1001c230 f   unzip.obj
 0001:0001b420       ?inflate_codes_new@@YAPAUinflate_codes_state@@IIPBUinflate_huft_s@@0PAUz_stream_s@@@Z 1001c420 f   unzip.obj
 0001:0001b480       ?inflate_codes@@YAHPAUinflate_blocks_state@@PAUz_stream_s@@H@Z 1001c480 f   unzip.obj
 0001:0001c180       ?inflate_codes_free@@YAXPAUinflate_codes_state@@PAUz_stream_s@@@Z 1001d180 f   unzip.obj
 0001:0001c1a0       ?inflate_blocks_reset@@YAXPAUinflate_blocks_state@@PAUz_stream_s@@PAK@Z 1001d1a0 f   unzip.obj
 0001:0001c260       ?inflate_blocks_new@@YAPAUinflate_blocks_state@@PAUz_stream_s@@P6AKKPBEI@ZI@Z 1001d260 f   unzip.obj
 0001:0001c370       ?inflate_blocks@@YAHPAUinflate_blocks_state@@PAUz_stream_s@@H@Z 1001d370 f   unzip.obj
 0001:0001d6c0       ?inflate_blocks_free@@YAHPAUinflate_blocks_state@@PAUz_stream_s@@@Z 1001e6c0 f   unzip.obj
 0001:0001d730       ?huft_build@@YAHPAIIIPBI1PAPAUinflate_huft_s@@0PAU1@00@Z 1001e730 f   unzip.obj
 0001:0001df50       ?inflate_trees_bits@@YAHPAI0PAPAUinflate_huft_s@@PAU1@PAUz_stream_s@@@Z 1001ef50 f   unzip.obj
 0001:0001e000       ?inflate_trees_dynamic@@YAHIIPAI00PAPAUinflate_huft_s@@1PAU1@PAUz_stream_s@@@Z 1001f000 f   unzip.obj
 0001:0001e190       ?inflate_trees_fixed@@YAHPAI0PAPBUinflate_huft_s@@1PAUz_stream_s@@@Z 1001f190 f   unzip.obj
 0001:0001e1c0       ?inflate_fast@@YAHIIPBUinflate_huft_s@@0PAUinflate_blocks_state@@PAUz_stream_s@@@Z 1001f1c0 f   unzip.obj
 0001:0001e910       ?get_crc_table@@YAPBKXZ    1001f910 f   unzip.obj
 0001:0001e920       ?ucrc32@@YAKKPBEI@Z        1001f920 f   unzip.obj
 0001:0001ead0       ?Uupdate_keys@@YAXPAKD@Z   1001fad0 f   unzip.obj
 0001:0001eb50       ?Udecrypt_byte@@YADPAK@Z   1001fb50 f   unzip.obj
 0001:0001eb80       ?zdecode@@YADPAKD@Z        1001fb80 f   unzip.obj
 0001:0001ebc0       ?adler32@@YAKKPBEI@Z       1001fbc0 f   unzip.obj
 0001:0001ee00       ?zlibVersion@@YAPBDXZ      1001fe00 f   unzip.obj
 0001:0001ee10       ?zError@@YAPBDH@Z          1001fe10 f   unzip.obj
 0001:0001ee30       ?zcalloc@@YAPAXPAXII@Z     1001fe30 f   unzip.obj
 0001:0001ee60       ?zcfree@@YAXPAX0@Z         1001fe60 f   unzip.obj
 0001:0001ee80       ?inflateReset@@YAHPAUz_stream_s@@@Z 1001fe80 f   unzip.obj
 0001:0001eef0       ?inflateEnd@@YAHPAUz_stream_s@@@Z 1001fef0 f   unzip.obj
 0001:0001ef60       ?inflateInit2@@YAHPAUz_stream_s@@@Z 1001ff60 f   unzip.obj
 0001:0001f0f0       ?inflate@@YAHPAUz_stream_s@@H@Z 100200f0 f   unzip.obj
 0001:0001f7a0       ?lufopen@@YAPAULUFILE@@PAXIKPAK@Z 100207a0 f   unzip.obj
 0001:0001f920       ?lufclose@@YAHPAULUFILE@@@Z 10020920 f   unzip.obj
 0001:0001f960       ?luferror@@YAHPAULUFILE@@@Z 10020960 f   unzip.obj
 0001:0001f990       ?luftell@@YAJPAULUFILE@@@Z 10020990 f   unzip.obj
 0001:0001f9e0       ?lufseek@@YAHPAULUFILE@@JH@Z 100209e0 f   unzip.obj
 0001:0001fac0       ?lufread@@YAIPAXIIPAULUFILE@@@Z 10020ac0 f   unzip.obj
 0001:0001fb70       ?unzlocal_getByte@@YAHPAULUFILE@@PAH@Z 10020b70 f   unzip.obj
 0001:0001fbc0       ?unzlocal_getShort@@YAHPAULUFILE@@PAK@Z 10020bc0 f   unzip.obj
 0001:0001fc30       ?unzlocal_getLong@@YAHPAULUFILE@@PAK@Z 10020c30 f   unzip.obj
 0001:0001fce0       ?strcmpcasenosensitive_internal@@YAHPBD0@Z 10020ce0 f   unzip.obj
 0001:0001fd90       ?unzStringFileNameCompare@@YAHPBD0H@Z 10020d90 f   unzip.obj
 0001:0001fdc0       ?unzlocal_SearchCentralDir@@YAKPAULUFILE@@@Z 10020dc0 f   unzip.obj
 0001:0001ff50       ?unzOpenInternal@@YAPAUunz_s@@PAULUFILE@@@Z 10020f50 f   unzip.obj
 0001:000201b0       ?unzClose@@YAHPAUunz_s@@@Z 100211b0 f   unzip.obj
 0001:00020210       ?unzGetGlobalInfo@@YAHPAUunz_s@@PAUunz_global_info_s@@@Z 10021210 f   unzip.obj
 0001:00020240       ?unzlocal_DosDateToTmuDate@@YAXKPAUtm_unz_s@@@Z 10021240 f   unzip.obj
 0001:000202c0       ?unzlocal_GetCurrentFileInfoInternal@@YAHPAUunz_s@@PAUunz_file_info_s@@PAUunz_file_info_internal_s@@PADKPAXK3K@Z 100212c0 f   unzip.obj
 0001:000206d0       ?unzGetCurrentFileInfo@@YAHPAUunz_s@@PAUunz_file_info_s@@PADKPAXK2K@Z 100216d0 f   unzip.obj
 0001:00020700       ?unzGoToFirstFile@@YAHPAUunz_s@@@Z 10021700 f   unzip.obj
 0001:00020770       ?unzGoToNextFile@@YAHPAUunz_s@@@Z 10021770 f   unzip.obj
 0001:00020830       ?unzLocateFile@@YAHPAUunz_s@@PBDH@Z 10021830 f   unzip.obj
 0001:00020930       ?unzlocal_CheckCurrentFileCoherencyHeader@@YAHPAUunz_s@@PAIPAK1@Z 10021930 f   unzip.obj
 0001:00020bb0       ?unzOpenCurrentFile@@YAHPAUunz_s@@PBD@Z 10021bb0 f   unzip.obj
 0001:00020e40       ?unzReadCurrentFile@@YAHPAUunz_s@@PAXIPA_N@Z 10021e40 f   unzip.obj
 0001:00021260       ?unztell@@YAJPAUunz_s@@@Z  10022260 f   unzip.obj
 0001:000212a0       ?unzeof@@YAHPAUunz_s@@@Z   100222a0 f   unzip.obj
 0001:000212f0       ?unzGetLocalExtrafield@@YAHPAUunz_s@@PAXI@Z 100222f0 f   unzip.obj
 0001:000213b0       ?unzCloseCurrentFile@@YAHPAUunz_s@@@Z 100223b0 f   unzip.obj
 0001:00021480       ?unzGetGlobalComment@@YAHPAUunz_s@@PADK@Z 10022480 f   unzip.obj
 0001:00021530       ?timet2filetime@@YA?AU_FILETIME@@I@Z 10022530 f   unzip.obj
 0001:00021580       ?dosdatetime2filetime@@YA?AU_FILETIME@@GG@Z 10022580 f   unzip.obj
 0001:00021600       ?Open@TUnzip@@QAEKPAXIK@Z  10022600 f   unzip.obj
 0001:00021710       ?SetUnzipBaseDir@TUnzip@@QAEKPB_W@Z 10022710 f   unzip.obj
 0001:00021790       ?Get@TUnzip@@QAEKHPAUZIPENTRY@@@Z 10022790 f   unzip.obj
 0001:00022080       ?Find@TUnzip@@QAEKPB_W_NPAHPAUZIPENTRY@@@Z 10023080 f   unzip.obj
 0001:000221b0       ?EnsureDirectory@@YAXPB_W0@Z 100231b0 f   unzip.obj
 0001:00022310       ?Unzip@TUnzip@@QAEKHPAXIK@Z 10023310 f   unzip.obj
 0001:00022970       ?Close@TUnzip@@QAEKXZ      10023970 f   unzip.obj
 0001:000229c0       ?FormatZipMessageU@@YAIKPA_WI@Z 100239c0 f   unzip.obj
 0001:00022cb0       ?OpenZipInternal@@YAPAUHZIP__@@PAXIKPBD@Z 10023cb0 f   unzip.obj
 0001:00022db0       ?OpenZipHandle@@YAPAUHZIP__@@PAXPBD@Z 10023db0 f   unzip.obj
 0001:00022dd0       ?OpenZip@@YAPAUHZIP__@@PB_WPBD@Z 10023dd0 f   unzip.obj
 0001:00022df0       ?OpenZip@@YAPAUHZIP__@@PAXIPBD@Z 10023df0 f   unzip.obj
 0001:00022e10       ?GetZipItem@@YAKPAUHZIP__@@HPAUZIPENTRY@@@Z 10023e10 f   unzip.obj
 0001:00022ea0       ?FindZipItem@@YAKPAUHZIP__@@PB_W_NPAHPAUZIPENTRY@@@Z 10023ea0 f   unzip.obj
 0001:00022f10       ?UnzipItemInternal@@YAKPAUHZIP__@@HPAXIK@Z 10023f10 f   unzip.obj
 0001:00022f80       ?UnzipItemHandle@@YAKPAUHZIP__@@HPAX@Z 10023f80 f   unzip.obj
 0001:00022fa0       ?UnzipItem@@YAKPAUHZIP__@@HPB_W@Z 10023fa0 f   unzip.obj
 0001:00022fc0       ?UnzipItem@@YAKPAUHZIP__@@HPAXI@Z 10023fc0 f   unzip.obj
 0001:00022fe0       ?SetUnzipBaseDir@@YAKPAUHZIP__@@PB_W@Z 10023fe0 f   unzip.obj
 0001:00023040       ?CloseZipU@@YAKPAUHZIP__@@@Z 10024040 f   unzip.obj
 0001:000230e0       ?IsZipHandleU@@YA_NPAUHZIP__@@@Z 100240e0 f   unzip.obj
 0001:00023110       ??0TUnzip@@QAE@PBD@Z       10024110 f i unzip.obj
 0001:000231a0       ??_GTUnzip@@QAEPAXI@Z      100241a0 f i unzip.obj
 0001:000231d0       ??1TUnzip@@QAE@XZ          100241d0 f i unzip.obj
 0001:00023240       ??0TTreeState@@QAE@XZ      10024240 f   zip.obj
 0001:00023360       ?Assert@@YAXAAUTState@@_NPBD@Z 10024360 f   zip.obj
 0001:00023380       ?Trace@@YAXPBDZZ           10024380 f   zip.obj
 0001:000233a0       ?Tracec@@YAX_NPBDZZ        100243a0 f   zip.obj
 0001:000233c0       ?ct_init@@YAXAAUTState@@PAG@Z 100243c0 f   zip.obj
 0001:00023780       ?init_block@@YAXAAUTState@@@Z 10024780 f   zip.obj
 0001:00023870       ?pqdownheap@@YAXAAUTState@@PAUct_data@@H@Z 10024870 f   zip.obj
 0001:000239e0       ?gen_bitlen@@YAXAAUTState@@PAUtree_desc@@@Z 100249e0 f   zip.obj
 0001:00023d20       ?gen_codes@@YAXAAUTState@@PAUct_data@@H@Z 10024d20 f   zip.obj
 0001:00023e30       ?build_tree@@YAXAAUTState@@PAUtree_desc@@@Z 10024e30 f   zip.obj
 0001:000241c0       ?scan_tree@@YAXAAUTState@@PAUct_data@@H@Z 100251c0 f   zip.obj
 0001:00024360       ?send_tree@@YAXAAUTState@@PAUct_data@@H@Z 10025360 f   zip.obj
 0001:000245b0       ?build_bl_tree@@YAHAAUTState@@@Z 100255b0 f   zip.obj
 0001:00024690       ?send_all_trees@@YAXAAUTState@@HHH@Z 10025690 f   zip.obj
 0001:00024830       ?flush_block@@YAKAAUTState@@PADKH@Z 10025830 f   zip.obj
 0001:00024bc0       ?ct_tally@@YAHAAUTState@@HH@Z 10025bc0 f   zip.obj
 0001:00024ef0       ?compress_block@@YAXAAUTState@@PAUct_data@@1@Z 10025ef0 f   zip.obj
 0001:00025110       ?set_file_type@@YAXAAUTState@@@Z 10026110 f   zip.obj
 0001:000251c0       ?bi_init@@YAXAAUTState@@PADIH@Z 100261c0 f   zip.obj
 0001:00025220       ?send_bits@@YAXAAUTState@@HH@Z 10026220 f   zip.obj
 0001:00025390       ?bi_reverse@@YAIIH@Z       10026390 f   zip.obj
 0001:000253d0       ?bi_windup@@YAXAAUTState@@@Z 100263d0 f   zip.obj
 0001:00025570       ?copy_block@@YAXAAUTState@@PADIH@Z 10026570 f   zip.obj
 0001:000257d0       ?lm_init@@YAXAAUTState@@HPAG@Z 100267d0 f   zip.obj
 0001:000259e0       ?longest_match@@YAHAAUTState@@I@Z 100269e0 f   zip.obj
 0001:00025d60       ?fill_window@@YAXAAUTState@@@Z 10026d60 f   zip.obj
 0001:00025fa0       ?deflate_fast@@YAKAAUTState@@@Z 10026fa0 f   zip.obj
 0001:000263a0       ?deflate@@YAKAAUTState@@@Z 100273a0 f   zip.obj
 0001:000268c0       ?putlocal@@YAHPAUzlist@@P6AIPAXPBDI@Z1@Z 100278c0 f   zip.obj
 0001:00026cd0       ?putextended@@YAHPAUzlist@@P6AIPAXPBDI@Z1@Z 10027cd0 f   zip.obj
 0001:00026ec0       ?putcentral@@YAHPAUzlist@@P6AIPAXPBDI@Z1@Z 10027ec0 f   zip.obj
 0001:000274e0       ?putend@@YAHHKKIPADP6AIPAXPBDI@Z1@Z 100284e0 f   zip.obj
 0001:00027750       ?crc32@@YAKKPBEI@Z         10028750 f   zip.obj
 0001:00027900       ?update_keys@@YAXPAKD@Z    10028900 f   zip.obj
 0001:00027980       ?decrypt_byte@@YADPAK@Z    10028980 f   zip.obj
 0001:000279b0       ?zencode@@YADPAKD@Z        100289b0 f   zip.obj
 0001:000279f0       ?HasZipSuffix@@YA_NPB_W@Z  100289f0 f   zip.obj
 0001:00027b30       ?filetime2timet@@YA_JU_FILETIME@@@Z 10028b30 f   zip.obj
 0001:00027b70       ?filetime2dosdatetime@@YAXU_FILETIME@@PAG1@Z 10028b70 f   zip.obj
 0001:00027c20       ?GetFileInfo@@YAKPAXPAKPAJPAUiztimes@@1@Z 10028c20 f   zip.obj
 0001:00027e70       ?Create@TZip@@QAEKPAXIK@Z  10028e70 f   zip.obj
 0001:00028070       ?sflush@TZip@@SAIPAXPBDPAI@Z 10029070 f   zip.obj
 0001:000280c0       ?swrite@TZip@@SAIPAXPBDI@Z 100290c0 f   zip.obj
 0001:000280f0       ?write@TZip@@QAEIPBDI@Z    100290f0 f   zip.obj
 0001:00028270       ?oseek@TZip@@QAE_NI@Z      10029270 f   zip.obj
 0001:00028300       ?GetMemory@TZip@@QAEKPAPAXPAK@Z 10029300 f   zip.obj
 0001:00028360       ?Close@TZip@@QAEKXZ        10029360 f   zip.obj
 0001:00028410       ?open_file@TZip@@QAEKPB_W@Z 10029410 f   zip.obj
 0001:000284e0       ?open_handle@TZip@@QAEKPAXI@Z 100294e0 f   zip.obj
 0001:00028690       ?open_mem@TZip@@QAEKPAXI@Z 10029690 f   zip.obj
 0001:000287c0       ?open_dir@TZip@@QAEKXZ     100297c0 f   zip.obj
 0001:000288c0       ?sread@TZip@@SAIAAUTState@@PADI@Z 100298c0 f   zip.obj
 0001:000288e0       ?read@TZip@@QAEIPADI@Z     100298e0 f   zip.obj
 0001:00028a20       ?iclose@TZip@@QAEKXZ       10029a20 f   zip.obj
 0001:00028ab0       ?ideflate@TZip@@QAEKPAUzlist@@@Z 10029ab0 f   zip.obj
 0001:00028c50       ?istore@TZip@@QAEKXZ       10029c50 f   zip.obj
 0001:00028cd0       ?Add@TZip@@QAEKPB_WPAXIK@Z 10029cd0 f   zip.obj
 0001:000297f0       ?AddCentral@TZip@@QAEKXZ   1002a7f0 f   zip.obj
 0001:00029930       ?FormatZipMessageZ@@YAIKPADI@Z 1002a930 f   zip.obj
 0001:00029c00       ?CreateZipInternal@@YAPAUHZIP__@@PAXIKPBD@Z 1002ac00 f   zip.obj
 0001:00029d00       ?CreateZipHandle@@YAPAUHZIP__@@PAXPBD@Z 1002ad00 f   zip.obj
 0001:00029d20       ?CreateZip@@YAPAUHZIP__@@PB_WPBD@Z 1002ad20 f   zip.obj
 0001:00029d40       ?CreateZip@@YAPAUHZIP__@@PAXIPBD@Z 1002ad40 f   zip.obj
 0001:00029d60       ?ZipAddInternal@@YAKPAUHZIP__@@PB_WPAXIK@Z 1002ad60 f   zip.obj
 0001:00029dd0       ?ZipAdd@@YAKPAUHZIP__@@PB_W1@Z 1002add0 f   zip.obj
 0001:00029df0       ?ZipAdd@@YAKPAUHZIP__@@PB_WPAXI@Z 1002adf0 f   zip.obj
 0001:00029e10       ?ZipAddHandle@@YAKPAUHZIP__@@PB_WPAX@Z 1002ae10 f   zip.obj
 0001:00029e30       ?ZipAddHandle@@YAKPAUHZIP__@@PB_WPAXI@Z 1002ae30 f   zip.obj
 0001:00029e50       ?ZipAddFolder@@YAKPAUHZIP__@@PB_W@Z 1002ae50 f   zip.obj
 0001:00029e70       ?ZipGetMemory@@YAKPAUHZIP__@@PAPAXPAK@Z 1002ae70 f   zip.obj
 0001:00029f00       ?CloseZipZ@@YAKPAUHZIP__@@@Z 1002af00 f   zip.obj
 0001:00029fa0       ?IsZipHandleZ@@YA_NPAUHZIP__@@@Z 1002afa0 f   zip.obj
 0001:00029fd0       ??0TState@@QAE@XZ          1002afd0 f i zip.obj
 0001:0002a000       ??0TDeflateState@@QAE@XZ   1002b000 f i zip.obj
 0001:0002a020       ??0TZip@@QAE@PBD@Z         1002b020 f i zip.obj
 0001:0002a100       ??_GTZip@@QAEPAXI@Z        1002b100 f i zip.obj
 0001:0002a130       ??1TZip@@QAE@XZ            1002b130 f i zip.obj
 0001:0002a1b2       ?setLibraryFilePathList@Registry@osgDB@@QAEXABV?$basic_string@DU?$char_traits@D@std@@V?$allocator@D@2@@std@@@Z 1002b1b2 f   osgDB:osg63-osgDB.dll
 0001:0002a1b8       ?instance@Registry@osgDB@@SAPAV12@_N@Z 1002b1b8 f   osgDB:osg63-osgDB.dll
 0001:0002a1be       ?readNodeFile@osgDB@@YAPAVNode@osg@@ABV?$basic_string@DU?$char_traits@D@std@@V?$allocator@D@2@@std@@PBVOptions@1@@Z 1002b1be f   osgDB:osg63-osgDB.dll
 0001:0002a1c4       ?getNode@ReadResult@ReaderWriter@osgDB@@QAEPAVNode@osg@@XZ 1002b1c4 f   osgDB:osg63-osgDB.dll
 0001:0002a1ca       ??1ReadResult@ReaderWriter@osgDB@@QAE@XZ 1002b1ca f   osgDB:osg63-osgDB.dll
 0001:0002a1d0       ?status@ReadResult@ReaderWriter@osgDB@@QBE?AW4ReadStatus@123@XZ 1002b1d0 f   osgDB:osg63-osgDB.dll
 0001:0002a1d6       ?setObjectCacheHint@Options@osgDB@@QAEXW4CacheHintOptions@12@@Z 1002b1d6 f   osgDB:osg63-osgDB.dll
 0001:0002a1dc       ?getReaderWriterForExtension@Registry@osgDB@@QAEPAVReaderWriter@2@ABV?$basic_string@DU?$char_traits@D@std@@V?$allocator@D@2@@std@@@Z 1002b1dc f   osgDB:osg63-osgDB.dll
 0001:0002a1e2       ??0Options@osgDB@@QAE@XZ   1002b1e2 f   osgDB:osg63-osgDB.dll
 0001:0002a1e8       ?cloneType@Options@osgDB@@UBEPAVObject@osg@@XZ 1002b1e8 f   osgDB:osg63-osgDB.dll
 0001:0002a1ee       ?clone@Options@osgDB@@UBEPAVObject@osg@@ABVCopyOp@4@@Z 1002b1ee f   osgDB:osg63-osgDB.dll
 0001:0002a1f4       ?isSameKindAs@Options@osgDB@@UBE_NPBVObject@osg@@@Z 1002b1f4 f   osgDB:osg63-osgDB.dll
 0001:0002a1fa       ?libraryName@Options@osgDB@@UBEPBDXZ 1002b1fa f   osgDB:osg63-osgDB.dll
 0001:0002a200       ?className@Options@osgDB@@UBEPBDXZ 1002b200 f   osgDB:osg63-osgDB.dll
 0001:0002a206       ??1Options@osgDB@@MAE@XZ   1002b206 f   osgDB:osg63-osgDB.dll
 0001:0002a20c       ?getPluginData@Options@osgDB@@QAEPAXABV?$basic_string@DU?$char_traits@D@std@@V?$allocator@D@2@@std@@@Z 1002b20c f   osgDB:osg63-osgDB.dll
 0001:0002a212       ?setPluginData@Options@osgDB@@QBEXABV?$basic_string@DU?$char_traits@D@std@@V?$allocator@D@2@@std@@PAX@Z 1002b212 f   osgDB:osg63-osgDB.dll
 0001:0002a218       ?setReadFileCallback@Registry@osgDB@@QAEXPAVReadFileCallback@2@@Z 1002b218 f   osgDB:osg63-osgDB.dll
 0001:0002a21e       ?openArchive@ReadFileCallback@osgDB@@UAE?AVReadResult@ReaderWriter@2@ABV?$basic_string@DU?$char_traits@D@std@@V?$allocator@D@2@@std@@W4ArchiveStatus@42@IPBVOptions@2@@Z 1002b21e f   osgDB:osg63-osgDB.dll
 0001:0002a224       ??0ReadResult@ReaderWriter@osgDB@@QAE@ABV012@@Z 1002b224 f   osgDB:osg63-osgDB.dll
 0001:0002a22a       ?readNodeImplementation@Registry@osgDB@@QAE?AVReadResult@ReaderWriter@2@ABV?$basic_string@DU?$char_traits@D@std@@V?$allocator@D@2@@std@@PBVOptions@2@@Z 1002b22a f   osgDB:osg63-osgDB.dll
 0001:0002a230       ?readHeightFieldImplementation@Registry@osgDB@@QAE?AVReadResult@ReaderWriter@2@ABV?$basic_string@DU?$char_traits@D@std@@V?$allocator@D@2@@std@@PBVOptions@2@@Z 1002b230 f   osgDB:osg63-osgDB.dll
 0001:0002a236       ?readShaderImplementation@Registry@osgDB@@QAE?AVReadResult@ReaderWriter@2@ABV?$basic_string@DU?$char_traits@D@std@@V?$allocator@D@2@@std@@PBVOptions@2@@Z 1002b236 f   osgDB:osg63-osgDB.dll
 0001:0002a23c       ??0ReadResult@ReaderWriter@osgDB@@QAE@PAVObject@osg@@W4ReadStatus@012@@Z 1002b23c f   osgDB:osg63-osgDB.dll
 0001:0002a242       ??0ReadResult@ReaderWriter@osgDB@@QAE@ABV?$basic_string@DU?$char_traits@D@std@@V?$allocator@D@2@@std@@@Z 1002b242 f   osgDB:osg63-osgDB.dll
 0001:0002a248       ?getSimpleFileName@osgDB@@YA?AV?$basic_string@DU?$char_traits@D@std@@V?$allocator@D@2@@std@@ABV23@@Z 1002b248 f   osgDB:osg63-osgDB.dll
 0001:0002a24e       ?readImageImplementation@Registry@osgDB@@QAE?AVReadResult@ReaderWriter@2@ABV?$basic_string@DU?$char_traits@D@std@@V?$allocator@D@2@@std@@PBVOptions@2@@Z 1002b24e f   osgDB:osg63-osgDB.dll
 0001:0002a254       ??1ReadFileCallback@osgDB@@MAE@XZ 1002b254 f   osgDB:osg63-osgDB.dll
 0001:0002a25a       ?takeHeightField@ReadResult@ReaderWriter@osgDB@@QAEPAVHeightField@osg@@XZ 1002b25a f   osgDB:osg63-osgDB.dll
 0001:0002a260       ?validHeightField@ReadResult@ReaderWriter@osgDB@@QAE_NXZ 1002b260 f   osgDB:osg63-osgDB.dll
 0001:0002a266       ?takeShader@ReadResult@ReaderWriter@osgDB@@QAEPAVShader@osg@@XZ 1002b266 f   osgDB:osg63-osgDB.dll
 0001:0002a26c       ?validShader@ReadResult@ReaderWriter@osgDB@@QAE_NXZ 1002b26c f   osgDB:osg63-osgDB.dll
 0001:0002a272       ?takeObject@ReadResult@ReaderWriter@osgDB@@QAEPAVObject@osg@@XZ 1002b272 f   osgDB:osg63-osgDB.dll
 0001:0002a278       ?validObject@ReadResult@ReaderWriter@osgDB@@QAE_NXZ 1002b278 f   osgDB:osg63-osgDB.dll
 0001:0002a27e       ?takeImage@ReadResult@ReaderWriter@osgDB@@QAEPAVImage@osg@@XZ 1002b27e f   osgDB:osg63-osgDB.dll
 0001:0002a284       ?validImage@ReadResult@ReaderWriter@osgDB@@QAE_NXZ 1002b284 f   osgDB:osg63-osgDB.dll
 0001:0002a28a       ?takeNode@ReadResult@ReaderWriter@osgDB@@QAEPAVNode@osg@@XZ 1002b28a f   osgDB:osg63-osgDB.dll
 0001:0002a290       ?validNode@ReadResult@ReaderWriter@osgDB@@QAE_NXZ 1002b290 f   osgDB:osg63-osgDB.dll
 0001:0002a296       ??0ReadFileCallback@osgDB@@QAE@XZ 1002b296 f   osgDB:osg63-osgDB.dll
 0001:0002a29c       ?getFileExtension@osgDB@@YA?AV?$basic_string@DU?$char_traits@D@std@@V?$allocator@D@2@@std@@ABV23@@Z 1002b29c f   osgDB:osg63-osgDB.dll
 0001:0002a2a2       ?getImage@ReadResult@ReaderWriter@osgDB@@QAEPAVImage@osg@@XZ 1002b2a2 f   osgDB:osg63-osgDB.dll
 0001:0002a2a8       ?getStrippedName@osgDB@@YA?AV?$basic_string@DU?$char_traits@D@std@@V?$allocator@D@2@@std@@ABV23@@Z 1002b2a8 f   osgDB:osg63-osgDB.dll
 0001:0002a2ae       ?releaseGLObjects@Registry@osgDB@@QAEXPAVState@osg@@@Z 1002b2ae f   osgDB:osg63-osgDB.dll
 0001:0002a2b4       ?clearObjectCache@Registry@osgDB@@QAEXXZ 1002b2b4 f   osgDB:osg63-osgDB.dll
 0001:0002a2ba       ?clearArchiveCache@Registry@osgDB@@QAEXXZ 1002b2ba f   osgDB:osg63-osgDB.dll
 0001:0002a2c0       ?closeAllLibraries@Registry@osgDB@@QAEXXZ 1002b2c0 f   osgDB:osg63-osgDB.dll
 0001:0002a2c6       ?getFilePath@osgDB@@YA?AV?$basic_string@DU?$char_traits@D@std@@V?$allocator@D@2@@std@@ABV23@@Z 1002b2c6 f   osgDB:osg63-osgDB.dll
 0001:0002a2cc       ?getOptions@Registry@osgDB@@QAEPAVOptions@2@XZ 1002b2cc f   osgDB:osg63-osgDB.dll
 0001:0002a2d2       ?writeNodeFile@osgDB@@YA_NABVNode@osg@@ABV?$basic_string@DU?$char_traits@D@std@@V?$allocator@D@2@@std@@PBVOptions@1@@Z 1002b2d2 f   osgDB:osg63-osgDB.dll
 0001:0002a2d8       ?notify@osg@@YAAAV?$basic_ostream@DU?$char_traits@D@std@@@std@@W4NotifySeverity@1@@Z 1002b2d8 f   osg:osg63-osg.dll
 0001:0002a2de       ??1Referenced@osg@@MAE@XZ  1002b2de f   osg:osg63-osg.dll
 0001:0002a2e4       ??0NodeVisitor@osg@@QAE@W4TraversalMode@01@@Z 1002b2e4 f   osg:osg63-osg.dll
 0001:0002a2ea       ??0Referenced@osg@@QAE@XZ  1002b2ea f   osg:osg63-osg.dll
 0001:0002a2f0       ?libraryName@NodeVisitor@osg@@UBEPBDXZ 1002b2f0 f   osg:osg63-osg.dll
 0001:0002a2f6       ?className@NodeVisitor@osg@@UBEPBDXZ 1002b2f6 f   osg:osg63-osg.dll
 0001:0002a2fc       ?reset@NodeVisitor@osg@@UAEXXZ 1002b2fc f   osg:osg63-osg.dll
 0001:0002a302       ?getEyePoint@NodeVisitor@osg@@UBE?AVVec3f@2@XZ 1002b302 f   osg:osg63-osg.dll
 0001:0002a308       ?getViewPoint@NodeVisitor@osg@@UBE?AVVec3f@2@XZ 1002b308 f   osg:osg63-osg.dll
 0001:0002a30e       ?getDistanceToEyePoint@NodeVisitor@osg@@UBEMABVVec3f@2@_N@Z 1002b30e f   osg:osg63-osg.dll
 0001:0002a314       ?getDistanceFromEyePoint@NodeVisitor@osg@@UBEMABVVec3f@2@_N@Z 1002b314 f   osg:osg63-osg.dll
 0001:0002a31a       ?getDistanceToViewPoint@NodeVisitor@osg@@UBEMABVVec3f@2@_N@Z 1002b31a f   osg:osg63-osg.dll
 0001:0002a320       ?apply@NodeVisitor@osg@@UAEXAAVOcclusionQueryNode@2@@Z 1002b320 f   osg:osg63-osg.dll
 0001:0002a326       ?apply@NodeVisitor@osg@@UAEXAAVOccluderNode@2@@Z 1002b326 f   osg:osg63-osg.dll
 0001:0002a32c       ?apply@NodeVisitor@osg@@UAEXAAVClearNode@2@@Z 1002b32c f   osg:osg63-osg.dll
 0001:0002a332       ?apply@NodeVisitor@osg@@UAEXAAVPagedLOD@2@@Z 1002b332 f   osg:osg63-osg.dll
 0001:0002a338       ?apply@NodeVisitor@osg@@UAEXAAVLOD@2@@Z 1002b338 f   osg:osg63-osg.dll
 0001:0002a33e       ?apply@NodeVisitor@osg@@UAEXAAVSequence@2@@Z 1002b33e f   osg:osg63-osg.dll
 0001:0002a344       ?apply@NodeVisitor@osg@@UAEXAAVSwitch@2@@Z 1002b344 f   osg:osg63-osg.dll
 0001:0002a34a       ?apply@NodeVisitor@osg@@UAEXAAVPositionAttitudeTransform@2@@Z 1002b34a f   osg:osg63-osg.dll
 0001:0002a350       ?apply@NodeVisitor@osg@@UAEXAAVMatrixTransform@2@@Z 1002b350 f   osg:osg63-osg.dll
 0001:0002a356       ?apply@NodeVisitor@osg@@UAEXAAVCameraView@2@@Z 1002b356 f   osg:osg63-osg.dll
 0001:0002a35c       ?apply@NodeVisitor@osg@@UAEXAAVCamera@2@@Z 1002b35c f   osg:osg63-osg.dll
 0001:0002a362       ?apply@NodeVisitor@osg@@UAEXAAVTransform@2@@Z 1002b362 f   osg:osg63-osg.dll
 0001:0002a368       ?apply@NodeVisitor@osg@@UAEXAAVLightSource@2@@Z 1002b368 f   osg:osg63-osg.dll
 0001:0002a36e       ?apply@NodeVisitor@osg@@UAEXAAVTexGenNode@2@@Z 1002b36e f   osg:osg63-osg.dll
 0001:0002a374       ?apply@NodeVisitor@osg@@UAEXAAVClipNode@2@@Z 1002b374 f   osg:osg63-osg.dll
 0001:0002a37a       ?apply@NodeVisitor@osg@@UAEXAAVCoordinateSystemNode@2@@Z 1002b37a f   osg:osg63-osg.dll
 0001:0002a380       ?apply@NodeVisitor@osg@@UAEXAAVProjection@2@@Z 1002b380 f   osg:osg63-osg.dll
 0001:0002a386       ?apply@NodeVisitor@osg@@UAEXAAVProxyNode@2@@Z 1002b386 f   osg:osg63-osg.dll
 0001:0002a38c       ?apply@NodeVisitor@osg@@UAEXAAVGroup@2@@Z 1002b38c f   osg:osg63-osg.dll
 0001:0002a392       ?apply@NodeVisitor@osg@@UAEXAAVBillboard@2@@Z 1002b392 f   osg:osg63-osg.dll
 0001:0002a398       ?setThreadSafeRefUnref@Referenced@osg@@UAEX_N@Z 1002b398 f   osg:osg63-osg.dll
 0001:0002a39e       ?getStateSet@Node@osg@@QAEPAVStateSet@2@XZ 1002b39e f   osg:osg63-osg.dll
 0001:0002a3a4       ?getDrawable@Geode@osg@@QAEPAVDrawable@2@I@Z 1002b3a4 f   osg:osg63-osg.dll
 0001:0002a3aa       ?getNumDrawables@Geode@osg@@QBEIXZ 1002b3aa f   osg:osg63-osg.dll
 0001:0002a3b0       ?setName@Object@osg@@QAEXABV?$basic_string@DU?$char_traits@D@std@@V?$allocator@D@2@@std@@@Z 1002b3b0 f   osg:osg63-osg.dll
 0001:0002a3b6       ?getName@Object@osg@@QBEABV?$basic_string@DU?$char_traits@D@std@@V?$allocator@D@2@@std@@XZ 1002b3b6 f   osg:osg63-osg.dll
 0001:0002a3bc       ?traverse@NodeVisitor@osg@@QAEXAAVNode@2@@Z 1002b3bc f   osg:osg63-osg.dll
 0001:0002a3c2       ??1NodeVisitor@osg@@UAE@XZ 1002b3c2 f   osg:osg63-osg.dll
 0001:0002a3c8       ?setPrimitiveSet@Geometry@osg@@QAE_NIPAVPrimitiveSet@2@@Z 1002b3c8 f   osg:osg63-osg.dll
 0001:0002a3ce       ??0DrawElementsUInt@osg@@QAE@I@Z 1002b3ce f   osg:osg63-osg.dll
 0001:0002a3d4       ?getCount@DrawArrays@osg@@QBEHXZ 1002b3d4 f   osg:osg63-osg.dll
 0001:0002a3da       ?getFirst@DrawArrays@osg@@QBEHXZ 1002b3da f   osg:osg63-osg.dll
 0001:0002a3e0       ?getMode@PrimitiveSet@osg@@QBEIXZ 1002b3e0 f   osg:osg63-osg.dll
 0001:0002a3e6       ?getType@PrimitiveSet@osg@@QBE?AW4Type@12@XZ 1002b3e6 f   osg:osg63-osg.dll
 0001:0002a3ec       ?getPrimitiveSet@Geometry@osg@@QAEPAVPrimitiveSet@2@I@Z 1002b3ec f   osg:osg63-osg.dll
 0001:0002a3f2       ?getNumPrimitiveSets@Geometry@osg@@QBEIXZ 1002b3f2 f   osg:osg63-osg.dll
 0001:0002a3f8       ?cloneType@DrawElementsUInt@osg@@UBEPAVObject@2@XZ 1002b3f8 f   osg:osg63-osg.dll
 0001:0002a3fe       ?clone@DrawElementsUInt@osg@@UBEPAVObject@2@ABVCopyOp@2@@Z 1002b3fe f   osg:osg63-osg.dll
 0001:0002a404       ?isSameKindAs@DrawElementsUInt@osg@@UBE_NPBVObject@2@@Z 1002b404 f   osg:osg63-osg.dll
 0001:0002a40a       ?libraryName@DrawElementsUInt@osg@@UBEPBDXZ 1002b40a f   osg:osg63-osg.dll
 0001:0002a410       ?className@DrawElementsUInt@osg@@UBEPBDXZ 1002b410 f   osg:osg63-osg.dll
 0001:0002a416       ?computeDataVariance@Object@osg@@UAEXXZ 1002b416 f   osg:osg63-osg.dll
 0001:0002a41c       ?resizeGLObjectBuffers@Object@osg@@UAEXI@Z 1002b41c f   osg:osg63-osg.dll
 0001:0002a422       ?releaseGLObjects@Object@osg@@UBEXPAVState@2@@Z 1002b422 f   osg:osg63-osg.dll
 0001:0002a428       ?getDataPointer@DrawElementsUInt@osg@@UBEPBXXZ 1002b428 f   osg:osg63-osg.dll
 0001:0002a42e       ?getTotalDataSize@DrawElementsUInt@osg@@UBEIXZ 1002b42e f   osg:osg63-osg.dll
 0001:0002a434       ?supportsBufferObject@DrawElementsUInt@osg@@UBE_NXZ 1002b434 f   osg:osg63-osg.dll
 0001:0002a43a       ?draw@DrawElementsUInt@osg@@UBEXAAVState@2@_N@Z 1002b43a f   osg:osg63-osg.dll
 0001:0002a440       ?accept@DrawElementsUInt@osg@@UBEXAAVPrimitiveIndexFunctor@2@@Z 1002b440 f   osg:osg63-osg.dll
 0001:0002a446       ?accept@DrawElementsUInt@osg@@UBEXAAVPrimitiveFunctor@2@@Z 1002b446 f   osg:osg63-osg.dll
 0001:0002a44c       ?index@DrawElementsUInt@osg@@UBEII@Z 1002b44c f   osg:osg63-osg.dll
 0001:0002a452       ?getNumIndices@DrawElementsUInt@osg@@UBEIXZ 1002b452 f   osg:osg63-osg.dll
 0001:0002a458       ?offsetIndices@DrawElementsUInt@osg@@UAEXH@Z 1002b458 f   osg:osg63-osg.dll
 0001:0002a45e       ?getNumPrimitives@PrimitiveSet@osg@@UBEIXZ 1002b45e f   osg:osg63-osg.dll
 0001:0002a464       ?computeRange@DrawElementsUInt@osg@@UBEXXZ 1002b464 f   osg:osg63-osg.dll
 0001:0002a46a       ?reserveElements@DrawElementsUInt@osg@@UAEXI@Z 1002b46a f   osg:osg63-osg.dll
 0001:0002a470       ?setElement@DrawElementsUInt@osg@@UAEXII@Z 1002b470 f   osg:osg63-osg.dll
 0001:0002a476       ?getElement@DrawElementsUInt@osg@@UAEII@Z 1002b476 f   osg:osg63-osg.dll
 0001:0002a47c       ?addElement@DrawElementsUInt@osg@@UAEXI@Z 1002b47c f   osg:osg63-osg.dll
 0001:0002a482       ??1DrawElementsUInt@osg@@MAE@XZ 1002b482 f   osg:osg63-osg.dll
 0001:0002a488       ?setNotifyLevel@osg@@YAXW4NotifySeverity@1@@Z 1002b488 f   osg:osg63-osg.dll
 0001:0002a48e       ?getVertexArray@Geometry@osg@@QAEPAVArray@2@XZ 1002b48e f   osg:osg63-osg.dll
 0001:0002a494       ??0Group@osg@@QAE@XZ       1002b494 f   osg:osg63-osg.dll
 0001:0002a49a       ?setThreadSafeRefUnref@Group@osg@@UAEX_N@Z 1002b49a f   osg:osg63-osg.dll
 0001:0002a4a0       ?cloneType@Group@osg@@UBEPAVObject@2@XZ 1002b4a0 f   osg:osg63-osg.dll
 0001:0002a4a6       ?clone@Group@osg@@UBEPAVObject@2@ABVCopyOp@2@@Z 1002b4a6 f   osg:osg63-osg.dll
 0001:0002a4ac       ?isSameKindAs@Group@osg@@UBE_NPBVObject@2@@Z 1002b4ac f   osg:osg63-osg.dll
 0001:0002a4b2       ?libraryName@Group@osg@@UBEPBDXZ 1002b4b2 f   osg:osg63-osg.dll
 0001:0002a4b8       ?className@Group@osg@@UBEPBDXZ 1002b4b8 f   osg:osg63-osg.dll
 0001:0002a4be       ?resizeGLObjectBuffers@Group@osg@@UAEXI@Z 1002b4be f   osg:osg63-osg.dll
 0001:0002a4c4       ?releaseGLObjects@Group@osg@@UBEXPAVState@2@@Z 1002b4c4 f   osg:osg63-osg.dll
 0001:0002a4ca       ?asGroup@Group@osg@@UBEPBV12@XZ 1002b4ca f   osg:osg63-osg.dll
 0001:0002a4d0       ?asGroup@Group@osg@@UAEPAV12@XZ 1002b4d0 f   osg:osg63-osg.dll
 0001:0002a4d6       ?asTransform@Node@osg@@UBEPBVTransform@2@XZ 1002b4d6 f   osg:osg63-osg.dll
 0001:0002a4dc       ?asTransform@Node@osg@@UAEPAVTransform@2@XZ 1002b4dc f   osg:osg63-osg.dll
 0001:0002a4e2       ?asSwitch@Node@osg@@UBEPBVSwitch@2@XZ 1002b4e2 f   osg:osg63-osg.dll
 0001:0002a4e8       ?asSwitch@Node@osg@@UAEPAVSwitch@2@XZ 1002b4e8 f   osg:osg63-osg.dll
 0001:0002a4ee       ?asGeode@Node@osg@@UBEPBVGeode@2@XZ 1002b4ee f   osg:osg63-osg.dll
 0001:0002a4f4       ?asGeode@Node@osg@@UAEPAVGeode@2@XZ 1002b4f4 f   osg:osg63-osg.dll
 0001:0002a4fa       ?accept@Group@osg@@UAEXAAVNodeVisitor@2@@Z 1002b4fa f   osg:osg63-osg.dll
 0001:0002a500       ?ascend@Node@osg@@UAEXAAVNodeVisitor@2@@Z 1002b500 f   osg:osg63-osg.dll
 0001:0002a506       ?traverse@Group@osg@@UAEXAAVNodeVisitor@2@@Z 1002b506 f   osg:osg63-osg.dll
 0001:0002a50c       ?computeBound@Group@osg@@UBE?AV?$BoundingSphereImpl@VVec3f@osg@@@2@XZ 1002b50c f   osg:osg63-osg.dll
 0001:0002a512       ?addChild@Group@osg@@UAE_NPAVNode@2@@Z 1002b512 f   osg:osg63-osg.dll
 0001:0002a518       ?insertChild@Group@osg@@UAE_NIPAVNode@2@@Z 1002b518 f   osg:osg63-osg.dll
 0001:0002a51e       ?removeChildren@Group@osg@@UAE_NII@Z 1002b51e f   osg:osg63-osg.dll
 0001:0002a524       ?replaceChild@Group@osg@@UAE_NPAVNode@2@0@Z 1002b524 f   osg:osg63-osg.dll
 0001:0002a52a       ?setChild@Group@osg@@UAE_NIPAVNode@2@@Z 1002b52a f   osg:osg63-osg.dll
 0001:0002a530       ?childRemoved@Group@osg@@MAEXII@Z 1002b530 f   osg:osg63-osg.dll
 0001:0002a536       ?childInserted@Group@osg@@MAEXI@Z 1002b536 f   osg:osg63-osg.dll
 0001:0002a53c       ??1Group@osg@@MAE@XZ       1002b53c f   osg:osg63-osg.dll
 0001:0002a542       ?setFileName@Image@osg@@QAEXABV?$basic_string@DU?$char_traits@D@std@@V?$allocator@D@2@@std@@@Z 1002b542 f   osg:osg63-osg.dll
 0001:0002a548       ??0Image@osg@@QAE@XZ       1002b548 f   osg:osg63-osg.dll
 0001:0002a54e       ?cloneType@Image@osg@@UBEPAVObject@2@XZ 1002b54e f   osg:osg63-osg.dll
 0001:0002a554       ?clone@Image@osg@@UBEPAVObject@2@ABVCopyOp@2@@Z 1002b554 f   osg:osg63-osg.dll
 0001:0002a55a       ?isSameKindAs@Image@osg@@UBE_NPBVObject@2@@Z 1002b55a f   osg:osg63-osg.dll
 0001:0002a560       ?libraryName@Image@osg@@UBEPBDXZ 1002b560 f   osg:osg63-osg.dll
 0001:0002a566       ?className@Image@osg@@UBEPBDXZ 1002b566 f   osg:osg63-osg.dll
 0001:0002a56c       ?getDataPointer@Image@osg@@UBEPBXXZ 1002b56c f   osg:osg63-osg.dll
 0001:0002a572       ?getTotalDataSize@Image@osg@@UBEIXZ 1002b572 f   osg:osg63-osg.dll
 0001:0002a578       ?compare@Image@osg@@UBEHABV12@@Z 1002b578 f   osg:osg63-osg.dll
 0001:0002a57e       ?allocateImage@Image@osg@@UAEXHHHIIH@Z 1002b57e f   osg:osg63-osg.dll
 0001:0002a584       ?setImage@Image@osg@@UAEXHHHHIIPAEW4AllocationMode@12@H@Z 1002b584 f   osg:osg63-osg.dll
 0001:0002a58a       ?readPixels@Image@osg@@UAEXHHHHII@Z 1002b58a f   osg:osg63-osg.dll
 0001:0002a590       ?readImageFromCurrentTexture@Image@osg@@UAEXI_NI@Z 1002b590 f   osg:osg63-osg.dll
 0001:0002a596       ?scaleImage@Image@osg@@UAEXHHHI@Z 1002b596 f   osg:osg63-osg.dll
 0001:0002a59c       ?copySubImage@Image@osg@@UAEXHHHPBV12@@Z 1002b59c f   osg:osg63-osg.dll
 0001:0002a5a2       ?isImageTranslucent@Image@osg@@UBE_NXZ 1002b5a2 f   osg:osg63-osg.dll
 0001:0002a5a8       ?requiresUpdateCall@Image@osg@@UBE_NXZ 1002b5a8 f   osg:osg63-osg.dll
 0001:0002a5ae       ?update@Image@osg@@UAEXPAVNodeVisitor@2@@Z 1002b5ae f   osg:osg63-osg.dll
 0001:0002a5b4       ?sendPointerEvent@Image@osg@@UAE_NHHH@Z 1002b5b4 f   osg:osg63-osg.dll
 0001:0002a5ba       ?sendKeyEvent@Image@osg@@UAE_NH_N@Z 1002b5ba f   osg:osg63-osg.dll
 0001:0002a5c0       ?setFrameLastRendered@Image@osg@@UAEXPBVFrameStamp@2@@Z 1002b5c0 f   osg:osg63-osg.dll
 0001:0002a5c6       ??1Image@osg@@MAE@XZ       1002b5c6 f   osg:osg63-osg.dll
 0001:0002a5cc       ?scaleImage@Image@osg@@QAEXHHH@Z 1002b5cc f   osg:osg63-osg.dll
 0001:0002a5d2       ?r@Image@osg@@QBEHXZ       1002b5d2 f   osg:osg63-osg.dll
 0001:0002a5d8       ?t@Image@osg@@QBEHXZ       1002b5d8 f   osg:osg63-osg.dll
 0001:0002a5de       ?s@Image@osg@@QBEHXZ       1002b5de f   osg:osg63-osg.dll
 0001:0002a5e4       ?releaseContext@GraphicsContext@osg@@QAE_NXZ 1002b5e4 f   osg:osg63-osg.dll
 0001:0002a5ea       ?makeCurrent@GraphicsContext@osg@@QAE_NXZ 1002b5ea f   osg:osg63-osg.dll
 0001:0002a5f0       ?realize@GraphicsContext@osg@@QAE_NXZ 1002b5f0 f   osg:osg63-osg.dll
 0001:0002a5f6       ?createGraphicsContext@GraphicsContext@osg@@SAPAV12@PAUTraits@12@@Z 1002b5f6 f   osg:osg63-osg.dll
 0001:0002a5fc       ?getMinimumNumAlphaBits@DisplaySettings@osg@@QBEIXZ 1002b5fc f   osg:osg63-osg.dll
 0001:0002a602       ??0Traits@GraphicsContext@osg@@QAE@PAVDisplaySettings@2@@Z 1002b602 f   osg:osg63-osg.dll
 0001:0002a608       ?instance@DisplaySettings@osg@@SAPAV12@XZ 1002b608 f   osg:osg63-osg.dll
 0001:0002a60e       ??1Traits@GraphicsContext@osg@@UAE@XZ 1002b60e f   osg:osg63-osg.dll
 0001:0002a614       ?getStateSet@Drawable@osg@@QAEPAVStateSet@2@XZ 1002b614 f   osg:osg63-osg.dll
 0001:0002a61a       ?getFileName@Image@osg@@QBEABV?$basic_string@DU?$char_traits@D@std@@V?$allocator@D@2@@std@@XZ 1002b61a f   osg:osg63-osg.dll
 0001:0002a620       ?getTextureAttribute@StateSet@osg@@QAEPAVStateAttribute@2@IW4Type@32@@Z 1002b620 f   osg:osg63-osg.dll
 0001:0002a626       ?getTextureAttributeList@StateSet@osg@@QAEAAV?$vector@V?$map@U?$pair@W4Type@StateAttribute@osg@@I@std@@U?$pair@V?$ref_ptr@VStateAttribute@osg@@@osg@@I@2@U?$less@U?$pair@W4Type@StateAttribute@osg@@I@std@@@2@V?$allocator@U?$pair@$$CBU?$pair@W4Type@StateAttribute@osg@@I@std@@U?$pair@V?$ref_ptr@VStateAttribute@osg@@@osg@@I@2@@std@@@2@@std@@V?$allocator@V?$map@U?$pair@W4Type@StateAttribute@osg@@I@std@@U?$pair@V?$ref_ptr@VStateAttribute@osg@@@osg@@I@2@U?$less@U?$pair@W4Type@StateAttribute@osg@@I@std@@@2@V?$allocator@U?$pair@$$CBU?$pair@W4Type@StateAttribute@osg@@I@std@@U?$pair@V?$ref_ptr@VStateAttribute@osg@@@osg@@I@2@@std@@@2@@std@@@2@@std@@XZ 1002b626 f   osg:osg63-osg.dll
 0001:0002a62c       ?getParent@Node@osg@@QAEPAVGroup@2@I@Z 1002b62c f   osg:osg63-osg.dll
 0001:0002a632       ?getNumParents@Node@osg@@QBEIXZ 1002b632 f   osg:osg63-osg.dll
 0001:0002a638       ?ref@Referenced@osg@@QBEXXZ 1002b638 f   osg:osg63-osg.dll
 0001:0002a63e       ?unref@Referenced@osg@@QBEXXZ 1002b63e f   osg:osg63-osg.dll
 0001:0002a644       ??0DrawElementsUShort@osg@@QAE@I@Z 1002b644 f   osg:osg63-osg.dll
 0001:0002a64a       ?cloneType@DrawElementsUShort@osg@@UBEPAVObject@2@XZ 1002b64a f   osg:osg63-osg.dll
 0001:0002a650       ?clone@DrawElementsUShort@osg@@UBEPAVObject@2@ABVCopyOp@2@@Z 1002b650 f   osg:osg63-osg.dll
 0001:0002a656       ?isSameKindAs@DrawElementsUShort@osg@@UBE_NPBVObject@2@@Z 1002b656 f   osg:osg63-osg.dll
 0001:0002a65c       ?libraryName@DrawElementsUShort@osg@@UBEPBDXZ 1002b65c f   osg:osg63-osg.dll
 0001:0002a662       ?className@DrawElementsUShort@osg@@UBEPBDXZ 1002b662 f   osg:osg63-osg.dll
 0001:0002a668       ?getDataPointer@DrawElementsUShort@osg@@UBEPBXXZ 1002b668 f   osg:osg63-osg.dll
 0001:0002a66e       ?getTotalDataSize@DrawElementsUShort@osg@@UBEIXZ 1002b66e f   osg:osg63-osg.dll
 0001:0002a674       ?supportsBufferObject@DrawElementsUShort@osg@@UBE_NXZ 1002b674 f   osg:osg63-osg.dll
 0001:0002a67a       ?draw@DrawElementsUShort@osg@@UBEXAAVState@2@_N@Z 1002b67a f   osg:osg63-osg.dll
 0001:0002a680       ?accept@DrawElementsUShort@osg@@UBEXAAVPrimitiveIndexFunctor@2@@Z 1002b680 f   osg:osg63-osg.dll
 0001:0002a686       ?accept@DrawElementsUShort@osg@@UBEXAAVPrimitiveFunctor@2@@Z 1002b686 f   osg:osg63-osg.dll
 0001:0002a68c       ?index@DrawElementsUShort@osg@@UBEII@Z 1002b68c f   osg:osg63-osg.dll
 0001:0002a692       ?getNumIndices@DrawElementsUShort@osg@@UBEIXZ 1002b692 f   osg:osg63-osg.dll
 0001:0002a698       ?offsetIndices@DrawElementsUShort@osg@@UAEXH@Z 1002b698 f   osg:osg63-osg.dll
 0001:0002a69e       ?computeRange@DrawElementsUShort@osg@@UBEXXZ 1002b69e f   osg:osg63-osg.dll
 0001:0002a6a4       ?reserveElements@DrawElementsUShort@osg@@UAEXI@Z 1002b6a4 f   osg:osg63-osg.dll
 0001:0002a6aa       ?setElement@DrawElementsUShort@osg@@UAEXII@Z 1002b6aa f   osg:osg63-osg.dll
 0001:0002a6b0       ?getElement@DrawElementsUShort@osg@@UAEII@Z 1002b6b0 f   osg:osg63-osg.dll
 0001:0002a6b6       ?addElement@DrawElementsUShort@osg@@UAEXI@Z 1002b6b6 f   osg:osg63-osg.dll
 0001:0002a6bc       ??1DrawElementsUShort@osg@@MAE@XZ 1002b6bc f   osg:osg63-osg.dll
 0001:0002a6c2       ??0DrawElementsUByte@osg@@QAE@I@Z 1002b6c2 f   osg:osg63-osg.dll
 0001:0002a6c8       ?cloneType@DrawElementsUByte@osg@@UBEPAVObject@2@XZ 1002b6c8 f   osg:osg63-osg.dll
 0001:0002a6ce       ?clone@DrawElementsUByte@osg@@UBEPAVObject@2@ABVCopyOp@2@@Z 1002b6ce f   osg:osg63-osg.dll
 0001:0002a6d4       ?isSameKindAs@DrawElementsUByte@osg@@UBE_NPBVObject@2@@Z 1002b6d4 f   osg:osg63-osg.dll
 0001:0002a6da       ?libraryName@DrawElementsUByte@osg@@UBEPBDXZ 1002b6da f   osg:osg63-osg.dll
 0001:0002a6e0       ?className@DrawElementsUByte@osg@@UBEPBDXZ 1002b6e0 f   osg:osg63-osg.dll
 0001:0002a6e6       ?getDataPointer@DrawElementsUByte@osg@@UBEPBXXZ 1002b6e6 f   osg:osg63-osg.dll
 0001:0002a6ec       ?getTotalDataSize@DrawElementsUByte@osg@@UBEIXZ 1002b6ec f   osg:osg63-osg.dll
 0001:0002a6f2       ?supportsBufferObject@DrawElementsUByte@osg@@UBE_NXZ 1002b6f2 f   osg:osg63-osg.dll
 0001:0002a6f8       ?draw@DrawElementsUByte@osg@@UBEXAAVState@2@_N@Z 1002b6f8 f   osg:osg63-osg.dll
 0001:0002a6fe       ?accept@DrawElementsUByte@osg@@UBEXAAVPrimitiveIndexFunctor@2@@Z 1002b6fe f   osg:osg63-osg.dll
 0001:0002a704       ?accept@DrawElementsUByte@osg@@UBEXAAVPrimitiveFunctor@2@@Z 1002b704 f   osg:osg63-osg.dll
 0001:0002a70a       ?index@DrawElementsUByte@osg@@UBEII@Z 1002b70a f   osg:osg63-osg.dll
 0001:0002a710       ?getNumIndices@DrawElementsUByte@osg@@UBEIXZ 1002b710 f   osg:osg63-osg.dll
 0001:0002a716       ?offsetIndices@DrawElementsUByte@osg@@UAEXH@Z 1002b716 f   osg:osg63-osg.dll
 0001:0002a71c       ?computeRange@DrawElementsUByte@osg@@UBEXXZ 1002b71c f   osg:osg63-osg.dll
 0001:0002a722       ?reserveElements@DrawElementsUByte@osg@@UAEXI@Z 1002b722 f   osg:osg63-osg.dll
 0001:0002a728       ?setElement@DrawElementsUByte@osg@@UAEXII@Z 1002b728 f   osg:osg63-osg.dll
 0001:0002a72e       ?getElement@DrawElementsUByte@osg@@UAEII@Z 1002b72e f   osg:osg63-osg.dll
 0001:0002a734       ?addElement@DrawElementsUByte@osg@@UAEXI@Z 1002b734 f   osg:osg63-osg.dll
 0001:0002a73a       ??1DrawElementsUByte@osg@@MAE@XZ 1002b73a f   osg:osg63-osg.dll
 0001:0002a740       ?push_back@?$MixinVector@I@osg@@QAEXABI@Z 1002b740 f   osg:osg63-osg.dll
 0001:0002a746       ?setMode@PrimitiveSet@osg@@QAEXI@Z 1002b746 f   osg:osg63-osg.dll
 0001:0002a74c       ?push_back@?$MixinVector@G@osg@@QAEXABG@Z 1002b74c f   osg:osg63-osg.dll
 0001:0002a752       ?push_back@?$MixinVector@E@osg@@QAEXABE@Z 1002b752 f   osg:osg63-osg.dll
 0001:0002a758       ??0Mutex@OpenThreads@@QAE@W4MutexType@01@@Z 1002b758 f   OpenThreads:ot12-OpenThreads.dll
 0001:0002a75e       ?lock@Mutex@OpenThreads@@UAEHXZ 1002b75e f   OpenThreads:ot12-OpenThreads.dll
 0001:0002a764       ?unlock@Mutex@OpenThreads@@UAEHXZ 1002b764 f   OpenThreads:ot12-OpenThreads.dll
 0001:0002a76a       ?trylock@Mutex@OpenThreads@@UAEHXZ 1002b76a f   OpenThreads:ot12-OpenThreads.dll
 0001:0002a770       ??1Mutex@OpenThreads@@UAE@XZ 1002b770 f   OpenThreads:ot12-OpenThreads.dll
 0001:0002a776       ?stripify@TriStripVisitor@osgUtil@@QAEXXZ 1002b776 f   osgUtil:osg63-osgUtil.dll
 0001:0002a77c       ?setGenerateFourPointPrimitivesQuads@TriStripVisitor@osgUtil@@QAEX_N@Z 1002b77c f   osgUtil:osg63-osgUtil.dll
 0001:0002a782       ?setMinStripSize@TriStripVisitor@osgUtil@@QAEXI@Z 1002b782 f   osgUtil:osg63-osgUtil.dll
 0001:0002a788       ??0TriStripVisitor@osgUtil@@QAE@PAVOptimizer@1@@Z 1002b788 f   osgUtil:osg63-osgUtil.dll
 0001:0002a78e       ?setPermissibleOptimizationsForObject@Optimizer@osgUtil@@QAEXPBVObject@osg@@I@Z 1002b78e f   osgUtil:osg63-osgUtil.dll
 0001:0002a794       ??0Optimizer@osgUtil@@QAE@XZ 1002b794 f   osgUtil:osg63-osgUtil.dll
 0001:0002a79a       ?optimize@Optimizer@osgUtil@@UAEXPAVNode@osg@@I@Z 1002b79a f   osgUtil:osg63-osgUtil.dll
 0001:0002a7a0       ??1Optimizer@osgUtil@@UAE@XZ 1002b7a0 f   osgUtil:osg63-osgUtil.dll
 0001:0002a7a6       ??_DTriStripVisitor@osgUtil@@QAEXXZ 1002b7a6 f   osgUtil:osg63-osgUtil.dll
 0001:0002a7ac       ??_DSimplifier@osgUtil@@QAEXXZ 1002b7ac f   osgUtil:osg63-osgUtil.dll
 0001:0002a7b2       ?simplify@Simplifier@osgUtil@@QAEXAAVGeometry@osg@@@Z 1002b7b2 f   osgUtil:osg63-osgUtil.dll
 0001:0002a7b8       ?setSampleRatio@Simplifier@osgUtil@@QAEXM@Z 1002b7b8 f   osgUtil:osg63-osgUtil.dll
 0001:0002a7be       ?setMaximumError@Simplifier@osgUtil@@QAEXM@Z 1002b7be f   osgUtil:osg63-osgUtil.dll
 0001:0002a7c4       ?setDoTriStrip@Simplifier@osgUtil@@QAEX_N@Z 1002b7c4 f   osgUtil:osg63-osgUtil.dll
 0001:0002a7ca       ??0Simplifier@osgUtil@@QAE@NNN@Z 1002b7ca f   osgUtil:osg63-osgUtil.dll
 0001:0002a7d0       ?optimize@Optimizer@osgUtil@@QAEXPAVNode@osg@@@Z 1002b7d0 f   osgUtil:osg63-osgUtil.dll
 0001:0002a7d6       ??_DViewer@osgViewer@@QAEXXZ 1002b7d6 f   osgViewer:osg63-osgViewer.dll
 0001:0002a7dc       ??0Viewer@osgViewer@@QAE@XZ 1002b7dc f   osgViewer:osg63-osgViewer.dll
 0001:0002a7e2       _SetFilePointer@16         1002b7e2 f   kernel32:KERNEL32.dll
 0001:0002a7e8       _CreateFileW@28            1002b7e8 f   kernel32:KERNEL32.dll
 0001:0002a7ee       _CloseHandle@4             1002b7ee f   kernel32:KERNEL32.dll
 0001:0002a7f4       _ReadFile@20               1002b7f4 f   kernel32:KERNEL32.dll
 0001:0002a7fa       _SystemTimeToFileTime@8    1002b7fa f   kernel32:KERNEL32.dll
 0001:0002a800       _GetCurrentDirectoryW@8    1002b800 f   kernel32:KERNEL32.dll
 0001:0002a806       _LocalFileTimeToFileTime@8 1002b806 f   kernel32:KERNEL32.dll
 0001:0002a80c       _MultiByteToWideChar@24    1002b80c f   kernel32:KERNEL32.dll
 0001:0002a812       _WideCharToMultiByte@32    1002b812 f   kernel32:KERNEL32.dll
 0001:0002a818       _CreateDirectoryW@8        1002b818 f   kernel32:KERNEL32.dll
 0001:0002a81e       _GetFileAttributesW@4      1002b81e f   kernel32:KERNEL32.dll
 0001:0002a824       _SetFileTime@16            1002b824 f   kernel32:KERNEL32.dll
 0001:0002a82a       _WriteFile@20              1002b82a f   kernel32:KERNEL32.dll
 0001:0002a830       _FileTimeToSystemTime@8    1002b830 f   kernel32:KERNEL32.dll
 0001:0002a836       _GetFileSize@8             1002b836 f   kernel32:KERNEL32.dll
 0001:0002a83c       _GetFileInformationByHandle@8 1002b83c f   kernel32:KERNEL32.dll
 0001:0002a842       _MapViewOfFile@20          1002b842 f   kernel32:KERNEL32.dll
 0001:0002a848       _CreateFileMappingW@24     1002b848 f   kernel32:KERNEL32.dll
 0001:0002a84e       _UnmapViewOfFile@4         1002b84e f   kernel32:KERNEL32.dll
 0001:0002a854       _GetLocalTime@4            1002b854 f   kernel32:KERNEL32.dll
 0001:0002a85a       _GetTickCount@0            1002b85a f   kernel32:KERNEL32.dll
 0001:0002a860       _wsprintfW                 1002b860 f   user32:USER32.dll
 0001:0002a866       _GetDesktopWindow@0        1002b866 f   user32:USER32.dll
 0001:0002a86c       ??6?$basic_ostream@DU?$char_traits@D@std@@@std@@QAEAAV01@P6AAAV01@AAV01@@Z@Z 1002b86c f   msvcprt:MSVCP90.dll
 0001:0002a872       ??6?$basic_ostream@DU?$char_traits@D@std@@@std@@QAEAAV01@I@Z 1002b872 f   msvcprt:MSVCP90.dll
 0001:0002a878       ?endl@std@@YAAAV?$basic_ostream@DU?$char_traits@D@std@@@1@AAV21@@Z 1002b878 f   msvcprt:MSVCP90.dll
 0001:0002a87e       ??1?$basic_string@DU?$char_traits@D@std@@V?$allocator@D@2@@std@@QAE@XZ 1002b87e f   msvcprt:MSVCP90.dll
 0001:0002a884       ??0?$basic_string@DU?$char_traits@D@std@@V?$allocator@D@2@@std@@QAE@ABV01@@Z 1002b884 f   msvcprt:MSVCP90.dll
 0001:0002a88a       ??A?$basic_string@DU?$char_traits@D@std@@V?$allocator@D@2@@std@@QAEAADI@Z 1002b88a f   msvcprt:MSVCP90.dll
 0001:0002a890       ?size@?$basic_string@DU?$char_traits@D@std@@V?$allocator@D@2@@std@@QBEIXZ 1002b890 f   msvcprt:MSVCP90.dll
 0001:0002a896       ?substr@?$basic_string@DU?$char_traits@D@std@@V?$allocator@D@2@@std@@QBE?AV12@II@Z 1002b896 f   msvcprt:MSVCP90.dll
 0001:0002a89c       ??0?$basic_string@DU?$char_traits@D@std@@V?$allocator@D@2@@std@@QAE@PBD@Z 1002b89c f   msvcprt:MSVCP90.dll
 0001:0002a8a2       ??0?$basic_string@DU?$char_traits@D@std@@V?$allocator@D@2@@std@@QAE@XZ 1002b8a2 f   msvcprt:MSVCP90.dll
 0001:0002a8a8       ??$?6DU?$char_traits@D@std@@V?$allocator@D@1@@std@@YAAAV?$basic_ostream@DU?$char_traits@D@std@@@0@AAV10@ABV?$basic_string@DU?$char_traits@D@std@@V?$allocator@D@2@@0@@Z 1002b8a8 f   msvcprt:MSVCP90.dll
 0001:0002a8ae       ??4?$basic_string@DU?$char_traits@D@std@@V?$allocator@D@2@@std@@QAEAAV01@ABV01@@Z 1002b8ae f   msvcprt:MSVCP90.dll
 0001:0002a8b4       ?push_back@?$basic_string@DU?$char_traits@D@std@@V?$allocator@D@2@@std@@QAEXD@Z 1002b8b4 f   msvcprt:MSVCP90.dll
 0001:0002a8ba       ?length@?$basic_string@DU?$char_traits@D@std@@V?$allocator@D@2@@std@@QBEIXZ 1002b8ba f   msvcprt:MSVCP90.dll
 0001:0002a8c0       ?seekg@?$basic_istream@DU?$char_traits@D@std@@@std@@QAEAAV12@JH@Z 1002b8c0 f   msvcprt:MSVCP90.dll
 0001:0002a8c6       ?c_str@?$basic_string@DU?$char_traits@D@std@@V?$allocator@D@2@@std@@QBEPBDXZ 1002b8c6 f   msvcprt:MSVCP90.dll
 0001:0002a8cc       ??_U@YAPAXI@Z              1002b8cc f   msvcprt:newaop_s.obj
 0001:0002a8d8       ??$?HDU?$char_traits@D@std@@V?$allocator@D@1@@std@@YA?AV?$basic_string@DU?$char_traits@D@std@@V?$allocator@D@2@@0@PBDABV10@@Z 1002b8d8 f   msvcprt:MSVCP90.dll
 0001:0002a8de       ??_D?$basic_stringstream@DU?$char_traits@D@std@@V?$allocator@D@2@@std@@QAEXXZ 1002b8de f   msvcprt:MSVCP90.dll
 0001:0002a8e4       ?tellg@?$basic_istream@DU?$char_traits@D@std@@@std@@QAE?AV?$fpos@H@2@XZ 1002b8e4 f   msvcprt:MSVCP90.dll
 0001:0002a8ea       ??0?$basic_stringstream@DU?$char_traits@D@std@@V?$allocator@D@2@@std@@QAE@ABV?$basic_string@DU?$char_traits@D@std@@V?$allocator@D@2@@1@H@Z 1002b8ea f   msvcprt:MSVCP90.dll
 0001:0002a8f0       ?str@?$basic_stringstream@DU?$char_traits@D@std@@V?$allocator@D@2@@std@@QBE?AV?$basic_string@DU?$char_traits@D@std@@V?$allocator@D@2@@2@XZ 1002b8f0 f   msvcprt:MSVCP90.dll
 0001:0002a8f6       ?write@?$basic_ostream@DU?$char_traits@D@std@@@std@@QAEAAV12@PBDH@Z 1002b8f6 f   msvcprt:MSVCP90.dll
 0001:0002a8fc       ??0?$basic_stringstream@DU?$char_traits@D@std@@V?$allocator@D@2@@std@@QAE@H@Z 1002b8fc f   msvcprt:MSVCP90.dll
 0001:0002a902       ?c_str@?$basic_string@_WU?$char_traits@_W@std@@V?$allocator@_W@2@@std@@QBEPB_WXZ 1002b902 f   msvcprt:MSVCP90.dll
 0001:0002a908       ??1?$basic_string@_WU?$char_traits@_W@std@@V?$allocator@_W@2@@std@@QAE@XZ 1002b908 f   msvcprt:MSVCP90.dll
 0001:0002a90e       ??Y?$basic_string@_WU?$char_traits@_W@std@@V?$allocator@_W@2@@std@@QAEAAV01@ABV01@@Z 1002b90e f   msvcprt:MSVCP90.dll
 0001:0002a914       ??$?H_WU?$char_traits@_W@std@@V?$allocator@_W@1@@std@@YA?AV?$basic_string@_WU?$char_traits@_W@std@@V?$allocator@_W@2@@0@PB_WABV10@@Z 1002b914 f   msvcprt:MSVCP90.dll
 0001:0002a91a       ?begin@?$basic_string@DU?$char_traits@D@std@@V?$allocator@D@2@@std@@QAE?AV?$_String_iterator@DU?$char_traits@D@std@@V?$allocator@D@2@@2@XZ 1002b91a f   msvcprt:MSVCP90.dll
 0001:0002a920       ?end@?$basic_string@DU?$char_traits@D@std@@V?$allocator@D@2@@std@@QAE?AV?$_String_iterator@DU?$char_traits@D@std@@V?$allocator@D@2@@2@XZ 1002b920 f   msvcprt:MSVCP90.dll
 0001:0002a926       ?clear@?$basic_ios@DU?$char_traits@D@std@@@std@@QAEXH_N@Z 1002b926 f   msvcprt:MSVCP90.dll
 0001:0002a92c       ??$?HDU?$char_traits@D@std@@V?$allocator@D@1@@std@@YA?AV?$basic_string@DU?$char_traits@D@std@@V?$allocator@D@2@@0@ABV10@0@Z 1002b92c f   msvcprt:MSVCP90.dll
 0001:0002a932       ??$?HDU?$char_traits@D@std@@V?$allocator@D@1@@std@@YA?AV?$basic_string@DU?$char_traits@D@std@@V?$allocator@D@2@@0@ABV10@PBD@Z 1002b932 f   msvcprt:MSVCP90.dll
 0001:0002a938       ??4?$basic_string@DU?$char_traits@D@std@@V?$allocator@D@2@@std@@QAEAAV01@PBD@Z 1002b938 f   msvcprt:MSVCP90.dll
 0001:0002a93e       ??Y?$basic_string@DU?$char_traits@D@std@@V?$allocator@D@2@@std@@QAEAAV01@ABV01@@Z 1002b93e f   msvcprt:MSVCP90.dll
 0001:0002a944       ?find@?$basic_string@DU?$char_traits@D@std@@V?$allocator@D@2@@std@@QBEIABV12@I@Z 1002b944 f   msvcprt:MSVCP90.dll
 0001:0002a94a       ?find_last_of@?$basic_string@DU?$char_traits@D@std@@V?$allocator@D@2@@std@@QBEIPBDI@Z 1002b94a f   msvcprt:MSVCP90.dll
 0001:0002a950       ?read@?$basic_istream@DU?$char_traits@D@std@@@std@@QAEAAV12@PADH@Z 1002b950 f   msvcprt:MSVCP90.dll
 0001:0002a956       ?begin@?$basic_string@_WU?$char_traits@_W@std@@V?$allocator@_W@2@@std@@QAE?AV?$_String_iterator@_WU?$char_traits@_W@std@@V?$allocator@_W@2@@2@XZ 1002b956 f   msvcprt:MSVCP90.dll
 0001:0002a95c       ?end@?$basic_string@_WU?$char_traits@_W@std@@V?$allocator@_W@2@@std@@QAE?AV?$_String_iterator@_WU?$char_traits@_W@std@@V?$allocator@_W@2@@2@XZ 1002b95c f   msvcprt:MSVCP90.dll
 0001:0002a962       ??0?$basic_string@_WU?$char_traits@_W@std@@V?$allocator@_W@2@@std@@QAE@PB_W@Z 1002b962 f   msvcprt:MSVCP90.dll
 0001:0002a968       ??6?$basic_ostream@DU?$char_traits@D@std@@@std@@QAEAAV01@H@Z 1002b968 f   msvcprt:MSVCP90.dll
 0001:0002a96e       ??$?8DU?$char_traits@D@std@@V?$allocator@D@1@@std@@YA_NABV?$basic_string@DU?$char_traits@D@std@@V?$allocator@D@2@@0@PBD@Z 1002b96e f   msvcprt:MSVCP90.dll
 0001:0002a974       ??$?9DU?$char_traits@D@std@@V?$allocator@D@1@@std@@YA_NABV?$basic_string@DU?$char_traits@D@std@@V?$allocator@D@2@@0@PBD@Z 1002b974 f   msvcprt:MSVCP90.dll
 0001:0002a97a       ??5?$basic_istream@DU?$char_traits@D@std@@@std@@QAEAAV01@AAH@Z 1002b97a f   msvcprt:MSVCP90.dll
 0001:0002a980       ??$?5DU?$char_traits@D@std@@V?$allocator@D@1@@std@@YAAAV?$basic_istream@DU?$char_traits@D@std@@@0@AAV10@AAV?$basic_string@DU?$char_traits@D@std@@V?$allocator@D@2@@0@@Z 1002b980 f   msvcprt:MSVCP90.dll
 0001:0002a986       ??5?$basic_istream@DU?$char_traits@D@std@@@std@@QAEAAV01@AAM@Z 1002b986 f   msvcprt:MSVCP90.dll
 0001:0002a98c       ?find_first_of@?$basic_string@DU?$char_traits@D@std@@V?$allocator@D@2@@std@@QBEIDI@Z 1002b98c f   msvcprt:MSVCP90.dll
 0001:0002a992       ??Bios_base@std@@QBEPAXXZ  1002b992 f   msvcprt:MSVCP90.dll
 0001:0002a998       ??$?MDU?$char_traits@D@std@@V?$allocator@D@1@@std@@YA_NABV?$basic_string@DU?$char_traits@D@std@@V?$allocator@D@2@@0@0@Z 1002b998 f   msvcprt:MSVCP90.dll
 0001:0002a99e       ?setstate@?$basic_ios@DU?$char_traits@D@std@@@std@@QAEXH_N@Z 1002b99e f   msvcprt:MSVCP90.dll
 0001:0002a9a4       ?width@ios_base@std@@QAEHH@Z 1002b9a4 f   msvcprt:MSVCP90.dll
 0001:0002a9aa       ?sputn@?$basic_streambuf@DU?$char_traits@D@std@@@std@@QAEHPBDH@Z 1002b9aa f   msvcprt:MSVCP90.dll
 0001:0002a9b0       ?eq_int_type@?$char_traits@D@std@@SA_NABH0@Z 1002b9b0 f   msvcprt:MSVCP90.dll
 0001:0002a9b6       ?eof@?$char_traits@D@std@@SAHXZ 1002b9b6 f   msvcprt:MSVCP90.dll
 0001:0002a9bc       ?sputc@?$basic_streambuf@DU?$char_traits@D@std@@@std@@QAEHD@Z 1002b9bc f   msvcprt:MSVCP90.dll
 0001:0002a9c2       ?rdbuf@?$basic_ios@DU?$char_traits@D@std@@@std@@QBEPAV?$basic_streambuf@DU?$char_traits@D@std@@@2@XZ 1002b9c2 f   msvcprt:MSVCP90.dll
 0001:0002a9c8       ?fill@?$basic_ios@DU?$char_traits@D@std@@@std@@QBEDXZ 1002b9c8 f   msvcprt:MSVCP90.dll
 0001:0002a9ce       ?flags@ios_base@std@@QBEHXZ 1002b9ce f   msvcprt:MSVCP90.dll
 0001:0002a9d4       ?width@ios_base@std@@QBEHXZ 1002b9d4 f   msvcprt:MSVCP90.dll
 0001:0002a9da       ?length@?$char_traits@D@std@@SAIPBD@Z 1002b9da f   msvcprt:MSVCP90.dll
 0001:0002a9e0       ?flush@?$basic_ostream@DU?$char_traits@D@std@@@std@@QAEAAV12@XZ 1002b9e0 f   msvcprt:MSVCP90.dll
 0001:0002a9e6       ?tie@?$basic_ios@DU?$char_traits@D@std@@@std@@QBEPAV?$basic_ostream@DU?$char_traits@D@std@@@2@XZ 1002b9e6 f   msvcprt:MSVCP90.dll
 0001:0002a9ec       ?good@ios_base@std@@QBE_NXZ 1002b9ec f   msvcprt:MSVCP90.dll
 0001:0002a9f2       ?_Osfx@?$basic_ostream@DU?$char_traits@D@std@@@std@@QAEXXZ 1002b9f2 f   msvcprt:MSVCP90.dll
 0001:0002a9f8       ?uncaught_exception@std@@YA_NXZ 1002b9f8 f   msvcprt:MSVCP90.dll
 0001:0002a9fe       ?_Lock@?$basic_streambuf@DU?$char_traits@D@std@@@std@@QAEXXZ 1002b9fe f   msvcprt:MSVCP90.dll
 0001:0002aa04       ?_Unlock@?$basic_streambuf@DU?$char_traits@D@std@@@std@@QAEXXZ 1002ba04 f   msvcprt:MSVCP90.dll
 0001:0002aa0a       ?_Tidy@?$basic_string@DU?$char_traits@D@std@@V?$allocator@D@2@@std@@IAEX_NI@Z 1002ba0a f   msvcprt:MSVCP90.dll
 0001:0002aa10       ??0?$_String_val@DV?$allocator@D@std@@@std@@IAE@V?$allocator@D@1@@Z 1002ba10 f   msvcprt:MSVCP90.dll
 0001:0002aa16       ??0?$allocator@D@std@@QAE@XZ 1002ba16 f   msvcprt:MSVCP90.dll
 0001:0002aa1c       ??_D?$basic_ostringstream@DU?$char_traits@D@std@@V?$allocator@D@2@@std@@QAEXXZ 1002ba1c f   msvcprt:MSVCP90.dll
 0001:0002aa22       ?str@?$basic_ostringstream@DU?$char_traits@D@std@@V?$allocator@D@2@@std@@QBE?AV?$basic_string@DU?$char_traits@D@std@@V?$allocator@D@2@@2@XZ 1002ba22 f   msvcprt:MSVCP90.dll
 0001:0002aa28       ??6?$basic_ostream@DU?$char_traits@D@std@@@std@@QAEAAV01@M@Z 1002ba28 f   msvcprt:MSVCP90.dll
 0001:0002aa2e       ??0?$basic_ostringstream@DU?$char_traits@D@std@@V?$allocator@D@2@@std@@QAE@H@Z 1002ba2e f   msvcprt:MSVCP90.dll
 0001:0002aa34       ?_Tidy@?$basic_string@_WU?$char_traits@_W@std@@V?$allocator@_W@2@@std@@IAEX_NI@Z 1002ba34 f   msvcprt:MSVCP90.dll
 0001:0002aa3a       ??0?$_String_val@_WV?$allocator@_W@std@@@std@@IAE@V?$allocator@_W@1@@Z 1002ba3a f   msvcprt:MSVCP90.dll
 0001:0002aa40       ??0?$allocator@_W@std@@QAE@XZ 1002ba40 f   msvcprt:MSVCP90.dll
 0001:0002aa46       ??$?8DU?$char_traits@D@std@@V?$allocator@D@1@@std@@YA_NABV?$basic_string@DU?$char_traits@D@std@@V?$allocator@D@2@@0@0@Z 1002ba46 f   msvcprt:MSVCP90.dll
 0001:0002aa4c       ?append@?$basic_string@DU?$char_traits@D@std@@V?$allocator@D@2@@std@@QAEAAV12@ID@Z 1002ba4c f   msvcprt:MSVCP90.dll
 0001:0002aa52       ?reserve@?$basic_string@DU?$char_traits@D@std@@V?$allocator@D@2@@std@@QAEXI@Z 1002ba52 f   msvcprt:MSVCP90.dll
 0001:0002aa58       ?append@?$basic_string@_WU?$char_traits@_W@std@@V?$allocator@_W@2@@std@@QAEAAV12@I_W@Z 1002ba58 f   msvcprt:MSVCP90.dll
 0001:0002aa5e       ?reserve@?$basic_string@_WU?$char_traits@_W@std@@V?$allocator@_W@2@@std@@QAEXI@Z 1002ba5e f   msvcprt:MSVCP90.dll
 0001:0002aa64       ?_Myptr@?$basic_string@DU?$char_traits@D@std@@V?$allocator@D@2@@std@@IAEPADXZ 1002ba64 f   msvcprt:MSVCP90.dll
 0001:0002aa6a       ?_Myptr@?$basic_string@_WU?$char_traits@_W@std@@V?$allocator@_W@2@@std@@IAEPA_WXZ 1002ba6a f   msvcprt:MSVCP90.dll
 0001:0002aa70       _tolower                   1002ba70 f   MSVCRT:MSVCR90.dll
 0001:0002aa76       ___CxxFrameHandler3        1002ba76 f   MSVCRT:MSVCR90.dll
 0001:0002aa7c       @__security_check_cookie@4 1002ba7c f   MSVCRT:secchk.obj
 0001:0002aa8c       ??2@YAPAXI@Z               1002ba8c f   MSVCRT:MSVCR90.dll
 0001:0002aa92       ??0type_info@@AAE@ABV0@@Z  1002ba92 f   MSVCRT:ti_inst.obj
 0001:0002aa9d       ??_Etype_info@@UAEPAXI@Z   1002ba9d f i MSVCRT:ti_inst.obj
 0001:0002aae9       ??4type_info@@AAEAAV0@ABV0@@Z 1002bae9 f   MSVCRT:ti_inst.obj
 0001:0002aaee       ??3@YAXPAX@Z               1002baee f   MSVCRT:MSVCR90.dll
 0001:0002aaf4       _strcpy                    1002baf4 f   MSVCRT:MSVCR90.dll
 0001:0002aafa       ___RTDynamicCast           1002bafa f   MSVCRT:MSVCR90.dll
 0001:0002ab00       __purecall                 1002bb00 f   MSVCRT:MSVCR90.dll
 0001:0002ab06       ??_V@YAXPAX@Z              1002bb06 f   MSVCRT:MSVCR90.dll
 0001:0002ab0c       _memcpy                    1002bb0c f   MSVCRT:MSVCR90.dll
 0001:0002ab12       _strlen                    1002bb12 f   MSVCRT:MSVCR90.dll
 0001:0002ab18       __CxxThrowException@8      1002bb18 f   MSVCRT:MSVCR90.dll
 0001:0002ab1e       __invalid_parameter_noinfo 1002bb1e f   MSVCRT:MSVCR90.dll
 0001:0002ab24       ??0exception@std@@QAE@ABV01@@Z 1002bb24 f   MSVCRT:MSVCR90.dll
 0001:0002ab2a       ??1exception@std@@UAE@XZ   1002bb2a f   MSVCRT:MSVCR90.dll
 0001:0002ab30       ??0exception@std@@QAE@XZ   1002bb30 f   MSVCRT:MSVCR90.dll
 0001:0002ab36       ??0exception@std@@QAE@ABQBD@Z 1002bb36 f   MSVCRT:MSVCR90.dll
 0001:0002ab3c       ?what@exception@std@@UBEPBDXZ 1002bb3c f   MSVCRT:MSVCR90.dll
 0001:0002ab42       _memmove_s                 1002bb42 f   MSVCRT:MSVCR90.dll
 0001:0002ab48       __onexit                   1002bb48 f   MSVCRT:atonexit.obj
 0001:0002abed       _atexit                    1002bbed f   MSVCRT:atonexit.obj
 0001:0002ac04       _calloc                    1002bc04 f   MSVCRT:MSVCR90.dll
 0001:0002ac0a       _free                      1002bc0a f   MSVCRT:MSVCR90.dll
 0001:0002ac10       _strcmp                    1002bc10 f   MSVCRT:MSVCR90.dll
 0001:0002ac16       _malloc                    1002bc16 f   MSVCRT:MSVCR90.dll
 0001:0002ac20       __allshr                   1002bc20 f   MSVCRT:llshr.obj
 0001:0002ac50       __allmul                   1002bc50 f   MSVCRT:llmul.obj
 0001:0002ac84       _wcscat                    1002bc84 f   MSVCRT:MSVCR90.dll
 0001:0002ac8a       _wcslen                    1002bc8a f   MSVCRT:MSVCR90.dll
 0001:0002ac90       _wcscpy                    1002bc90 f   MSVCRT:MSVCR90.dll
 0001:0002ac96       _wcsstr                    1002bc96 f   MSVCRT:MSVCR90.dll
 0001:0002ac9c       _memset                    1002bc9c f   MSVCRT:MSVCR90.dll
 0001:0002aca2       _wcsncpy                   1002bca2 f   MSVCRT:MSVCR90.dll
 0001:0002aca8       __wcsicmp                  1002bca8 f   MSVCRT:MSVCR90.dll
 0001:0002acb0       __alldiv                   1002bcb0 f   MSVCRT:lldiv.obj
 0001:0002ad5a       _rand                      1002bd5a f   MSVCRT:MSVCR90.dll
 0001:0002ad60       _srand                     1002bd60 f   MSVCRT:MSVCR90.dll
 0001:0002ad66       _strcat                    1002bd66 f   MSVCRT:MSVCR90.dll
 0001:0002ad6c       _strncpy                   1002bd6c f   MSVCRT:MSVCR90.dll
 0001:0002ad72       ___report_gsfailure        1002bd72 f   MSVCRT:gs_report.obj
 0001:0002ae8a       ?__ArrayUnwind@@YGXPAXIHP6EX0@Z@Z 1002be8a f   MSVCRT:ehvecdtr.obj
 0001:0002aee8       ??_M@YGXPAXIHP6EX0@Z@Z     1002bee8 f   MSVCRT:ehvecdtr.obj
 0001:0002af4c       __unlock                   1002bf4c f   MSVCRT:MSVCR90.dll
 0001:0002af52       ___dllonexit               1002bf52 f   MSVCRT:MSVCR90.dll
 0001:0002af58       __encode_pointer           1002bf58 f   MSVCRT:MSVCR90.dll
 0001:0002af5e       __lock                     1002bf5e f   MSVCRT:MSVCR90.dll
 0001:0002af64       __decode_pointer           1002bf64 f   MSVCRT:MSVCR90.dll
 0001:0002af6c       __SEH_prolog4              1002bf6c f   MSVCRT:sehprolg4.obj
 0001:0002afb1       __SEH_epilog4              1002bfb1 f   MSVCRT:sehprolg4.obj
 0001:0002afc5       __except_handler4          1002bfc5 f   MSVCRT:chandler4gs.obj
 0001:0002afea       __crt_debugger_hook        1002bfea f   MSVCRT:MSVCR90.dll
 0001:0002aff0       ?terminate@@YAXXZ          1002bff0 f   MSVCRT:MSVCR90.dll
 0001:0002aff6       ?_type_info_dtor_internal_method@type_info@@QAEXXZ 1002bff6 f   MSVCRT:MSVCR90.dll
 0001:0002aff6       ??1type_info@@UAE@XZ       1002bff6 f   MSVCRT:MSVCR90.dll
 0001:0002affe       __except_handler4_common   1002bffe f   MSVCRT:MSVCR90.dll
 0001:0002b004       _TerminateProcess@8        1002c004 f   kernel32:KERNEL32.dll
 0001:0002b00a       _GetCurrentProcess@0       1002c00a f   kernel32:KERNEL32.dll
 0001:0002b010       _UnhandledExceptionFilter@4 1002c010 f   kernel32:KERNEL32.dll
 0001:0002b016       _SetUnhandledExceptionFilter@4 1002c016 f   kernel32:KERNEL32.dll
 0001:0002b01c       _IsDebuggerPresent@0       1002c01c f   kernel32:KERNEL32.dll
 0001:0002b022       __stricmp                  1002c022 f   MSVCRT:MSVCR90.dll
 0002:00000000       __imp__GetLocalTime@4      1002f000     kernel32:KERNEL32.dll
 0002:00000004       __imp__IsDebuggerPresent@0 1002f004     kernel32:KERNEL32.dll
 0002:00000008       __imp__SetUnhandledExceptionFilter@4 1002f008     kernel32:KERNEL32.dll
 0002:0000000c       __imp__UnhandledExceptionFilter@4 1002f00c     kernel32:KERNEL32.dll
 0002:00000010       __imp__GetCurrentProcess@0 1002f010     kernel32:KERNEL32.dll
 0002:00000014       __imp__TerminateProcess@8  1002f014     kernel32:KERNEL32.dll
 0002:00000018       __imp__GetTickCount@0      1002f018     kernel32:KERNEL32.dll
 0002:0000001c       __imp__UnmapViewOfFile@4   1002f01c     kernel32:KERNEL32.dll
 0002:00000020       __imp__CreateFileMappingW@24 1002f020     kernel32:KERNEL32.dll
 0002:00000024       __imp__MapViewOfFile@20    1002f024     kernel32:KERNEL32.dll
 0002:00000028       __imp__GetFileInformationByHandle@8 1002f028     kernel32:KERNEL32.dll
 0002:0000002c       __imp__GetFileSize@8       1002f02c     kernel32:KERNEL32.dll
 0002:00000030       __imp__FileTimeToSystemTime@8 1002f030     kernel32:KERNEL32.dll
 0002:00000034       __imp__WriteFile@20        1002f034     kernel32:KERNEL32.dll
 0002:00000038       __imp__SetFileTime@16      1002f038     kernel32:KERNEL32.dll
 0002:0000003c       __imp__GetFileAttributesW@4 1002f03c     kernel32:KERNEL32.dll
 0002:00000040       __imp__CreateDirectoryW@8  1002f040     kernel32:KERNEL32.dll
 0002:00000044       __imp__WideCharToMultiByte@32 1002f044     kernel32:KERNEL32.dll
 0002:00000048       __imp__MultiByteToWideChar@24 1002f048     kernel32:KERNEL32.dll
 0002:0000004c       __imp__LocalFileTimeToFileTime@8 1002f04c     kernel32:KERNEL32.dll
 0002:00000050       __imp__GetCurrentDirectoryW@8 1002f050     kernel32:KERNEL32.dll
 0002:00000054       __imp__SystemTimeToFileTime@8 1002f054     kernel32:KERNEL32.dll
 0002:00000058       __imp__ReadFile@20         1002f058     kernel32:KERNEL32.dll
 0002:0000005c       __imp__CloseHandle@4       1002f05c     kernel32:KERNEL32.dll
 0002:00000060       __imp__CreateFileW@28      1002f060     kernel32:KERNEL32.dll
 0002:00000064       __imp__SetFilePointer@16   1002f064     kernel32:KERNEL32.dll
 0002:00000068       \177KERNEL32_NULL_THUNK_DATA 1002f068     kernel32:KERNEL32.dll
 0002:0000006c       __imp_?good@ios_base@std@@QBE_NXZ 1002f06c     msvcprt:MSVCP90.dll
 0002:00000070       __imp_?tie@?$basic_ios@DU?$char_traits@D@std@@@std@@QBEPAV?$basic_ostream@DU?$char_traits@D@std@@@2@XZ 1002f070     msvcprt:MSVCP90.dll
 0002:00000074       __imp_?flush@?$basic_ostream@DU?$char_traits@D@std@@@std@@QAEAAV12@XZ 1002f074     msvcprt:MSVCP90.dll
 0002:00000078       __imp_?length@?$char_traits@D@std@@SAIPBD@Z 1002f078     msvcprt:MSVCP90.dll
 0002:0000007c       __imp_?_Osfx@?$basic_ostream@DU?$char_traits@D@std@@@std@@QAEXXZ 1002f07c     msvcprt:MSVCP90.dll
 0002:00000080       __imp_?uncaught_exception@std@@YA_NXZ 1002f080     msvcprt:MSVCP90.dll
 0002:00000084       __imp_?_Lock@?$basic_streambuf@DU?$char_traits@D@std@@@std@@QAEXXZ 1002f084     msvcprt:MSVCP90.dll
 0002:00000088       __imp_?_Unlock@?$basic_streambuf@DU?$char_traits@D@std@@@std@@QAEXXZ 1002f088     msvcprt:MSVCP90.dll
 0002:0000008c       __imp_?_Tidy@?$basic_string@DU?$char_traits@D@std@@V?$allocator@D@2@@std@@IAEX_NI@Z 1002f08c     msvcprt:MSVCP90.dll
 0002:00000090       __imp_??0?$_String_val@DV?$allocator@D@std@@@std@@IAE@V?$allocator@D@1@@Z 1002f090     msvcprt:MSVCP90.dll
 0002:00000094       __imp_??0?$allocator@D@std@@QAE@XZ 1002f094     msvcprt:MSVCP90.dll
 0002:00000098       __imp_??_D?$basic_ostringstream@DU?$char_traits@D@std@@V?$allocator@D@2@@std@@QAEXXZ 1002f098     msvcprt:MSVCP90.dll
 0002:0000009c       __imp_?str@?$basic_ostringstream@DU?$char_traits@D@std@@V?$allocator@D@2@@std@@QBE?AV?$basic_string@DU?$char_traits@D@std@@V?$allocator@D@2@@2@XZ 1002f09c     msvcprt:MSVCP90.dll
 0002:000000a0       __imp_??6?$basic_ostream@DU?$char_traits@D@std@@@std@@QAEAAV01@M@Z 1002f0a0     msvcprt:MSVCP90.dll
 0002:000000a4       __imp_??0?$basic_ostringstream@DU?$char_traits@D@std@@V?$allocator@D@2@@std@@QAE@H@Z 1002f0a4     msvcprt:MSVCP90.dll
 0002:000000a8       __imp_?_Tidy@?$basic_string@_WU?$char_traits@_W@std@@V?$allocator@_W@2@@std@@IAEX_NI@Z 1002f0a8     msvcprt:MSVCP90.dll
 0002:000000ac       __imp_??0?$_String_val@_WV?$allocator@_W@std@@@std@@IAE@V?$allocator@_W@1@@Z 1002f0ac     msvcprt:MSVCP90.dll
 0002:000000b0       __imp_??0?$allocator@_W@std@@QAE@XZ 1002f0b0     msvcprt:MSVCP90.dll
 0002:000000b4       __imp_??$?8DU?$char_traits@D@std@@V?$allocator@D@1@@std@@YA_NABV?$basic_string@DU?$char_traits@D@std@@V?$allocator@D@2@@0@0@Z 1002f0b4     msvcprt:MSVCP90.dll
 0002:000000b8       __imp_?append@?$basic_string@DU?$char_traits@D@std@@V?$allocator@D@2@@std@@QAEAAV12@ID@Z 1002f0b8     msvcprt:MSVCP90.dll
 0002:000000bc       __imp_?reserve@?$basic_string@DU?$char_traits@D@std@@V?$allocator@D@2@@std@@QAEXI@Z 1002f0bc     msvcprt:MSVCP90.dll
 0002:000000c0       __imp_?append@?$basic_string@_WU?$char_traits@_W@std@@V?$allocator@_W@2@@std@@QAEAAV12@I_W@Z 1002f0c0     msvcprt:MSVCP90.dll
 0002:000000c4       __imp_?reserve@?$basic_string@_WU?$char_traits@_W@std@@V?$allocator@_W@2@@std@@QAEXI@Z 1002f0c4     msvcprt:MSVCP90.dll
 0002:000000c8       __imp_?flags@ios_base@std@@QBEHXZ 1002f0c8     msvcprt:MSVCP90.dll
 0002:000000cc       __imp_?fill@?$basic_ios@DU?$char_traits@D@std@@@std@@QBEDXZ 1002f0cc     msvcprt:MSVCP90.dll
 0002:000000d0       __imp_?rdbuf@?$basic_ios@DU?$char_traits@D@std@@@std@@QBEPAV?$basic_streambuf@DU?$char_traits@D@std@@@2@XZ 1002f0d0     msvcprt:MSVCP90.dll
 0002:000000d4       __imp_?sputc@?$basic_streambuf@DU?$char_traits@D@std@@@std@@QAEHD@Z 1002f0d4     msvcprt:MSVCP90.dll
 0002:000000d8       __imp_?eof@?$char_traits@D@std@@SAHXZ 1002f0d8     msvcprt:MSVCP90.dll
 0002:000000dc       __imp_?eq_int_type@?$char_traits@D@std@@SA_NABH0@Z 1002f0dc     msvcprt:MSVCP90.dll
 0002:000000e0       __imp_?_Myptr@?$basic_string@DU?$char_traits@D@std@@V?$allocator@D@2@@std@@IAEPADXZ 1002f0e0     msvcprt:MSVCP90.dll
 0002:000000e4       __imp_?width@ios_base@std@@QAEHH@Z 1002f0e4     msvcprt:MSVCP90.dll
 0002:000000e8       __imp_?setstate@?$basic_ios@DU?$char_traits@D@std@@@std@@QAEXH_N@Z 1002f0e8     msvcprt:MSVCP90.dll
 0002:000000ec       __imp_??$?MDU?$char_traits@D@std@@V?$allocator@D@1@@std@@YA_NABV?$basic_string@DU?$char_traits@D@std@@V?$allocator@D@2@@0@0@Z 1002f0ec     msvcprt:MSVCP90.dll
 0002:000000f0       __imp_??Bios_base@std@@QBEPAXXZ 1002f0f0     msvcprt:MSVCP90.dll
 0002:000000f4       __imp_?find_first_of@?$basic_string@DU?$char_traits@D@std@@V?$allocator@D@2@@std@@QBEIDI@Z 1002f0f4     msvcprt:MSVCP90.dll
 0002:000000f8       __imp_??5?$basic_istream@DU?$char_traits@D@std@@@std@@QAEAAV01@AAM@Z 1002f0f8     msvcprt:MSVCP90.dll
 0002:000000fc       __imp_??$?5DU?$char_traits@D@std@@V?$allocator@D@1@@std@@YAAAV?$basic_istream@DU?$char_traits@D@std@@@0@AAV10@AAV?$basic_string@DU?$char_traits@D@std@@V?$allocator@D@2@@0@@Z 1002f0fc     msvcprt:MSVCP90.dll
 0002:00000100       __imp_??5?$basic_istream@DU?$char_traits@D@std@@@std@@QAEAAV01@AAH@Z 1002f100     msvcprt:MSVCP90.dll
 0002:00000104       __imp_??$?9DU?$char_traits@D@std@@V?$allocator@D@1@@std@@YA_NABV?$basic_string@DU?$char_traits@D@std@@V?$allocator@D@2@@0@PBD@Z 1002f104     msvcprt:MSVCP90.dll
 0002:00000108       __imp_??$?8DU?$char_traits@D@std@@V?$allocator@D@1@@std@@YA_NABV?$basic_string@DU?$char_traits@D@std@@V?$allocator@D@2@@0@PBD@Z 1002f108     msvcprt:MSVCP90.dll
 0002:0000010c       __imp_??6?$basic_ostream@DU?$char_traits@D@std@@@std@@QAEAAV01@H@Z 1002f10c     msvcprt:MSVCP90.dll
 0002:00000110       __imp_??0?$basic_string@_WU?$char_traits@_W@std@@V?$allocator@_W@2@@std@@QAE@PB_W@Z 1002f110     msvcprt:MSVCP90.dll
 0002:00000114       __imp_?end@?$basic_string@_WU?$char_traits@_W@std@@V?$allocator@_W@2@@std@@QAE?AV?$_String_iterator@_WU?$char_traits@_W@std@@V?$allocator@_W@2@@2@XZ 1002f114     msvcprt:MSVCP90.dll
 0002:00000118       __imp_?begin@?$basic_string@_WU?$char_traits@_W@std@@V?$allocator@_W@2@@std@@QAE?AV?$_String_iterator@_WU?$char_traits@_W@std@@V?$allocator@_W@2@@2@XZ 1002f118     msvcprt:MSVCP90.dll
 0002:0000011c       __imp_?read@?$basic_istream@DU?$char_traits@D@std@@@std@@QAEAAV12@PADH@Z 1002f11c     msvcprt:MSVCP90.dll
 0002:00000120       __imp_?npos@?$basic_string@DU?$char_traits@D@std@@V?$allocator@D@2@@std@@2IB 1002f120     msvcprt:MSVCP90.dll
 0002:00000124       __imp_?find_last_of@?$basic_string@DU?$char_traits@D@std@@V?$allocator@D@2@@std@@QBEIPBDI@Z 1002f124     msvcprt:MSVCP90.dll
 0002:00000128       __imp_?find@?$basic_string@DU?$char_traits@D@std@@V?$allocator@D@2@@std@@QBEIABV12@I@Z 1002f128     msvcprt:MSVCP90.dll
 0002:0000012c       __imp_??Y?$basic_string@DU?$char_traits@D@std@@V?$allocator@D@2@@std@@QAEAAV01@ABV01@@Z 1002f12c     msvcprt:MSVCP90.dll
 0002:00000130       __imp_??4?$basic_string@DU?$char_traits@D@std@@V?$allocator@D@2@@std@@QAEAAV01@PBD@Z 1002f130     msvcprt:MSVCP90.dll
 0002:00000134       __imp_??$?HDU?$char_traits@D@std@@V?$allocator@D@1@@std@@YA?AV?$basic_string@DU?$char_traits@D@std@@V?$allocator@D@2@@0@ABV10@PBD@Z 1002f134     msvcprt:MSVCP90.dll
 0002:00000138       __imp_??$?HDU?$char_traits@D@std@@V?$allocator@D@1@@std@@YA?AV?$basic_string@DU?$char_traits@D@std@@V?$allocator@D@2@@0@ABV10@0@Z 1002f138     msvcprt:MSVCP90.dll
 0002:0000013c       __imp_?clear@?$basic_ios@DU?$char_traits@D@std@@@std@@QAEXH_N@Z 1002f13c     msvcprt:MSVCP90.dll
 0002:00000140       __imp_?end@?$basic_string@DU?$char_traits@D@std@@V?$allocator@D@2@@std@@QAE?AV?$_String_iterator@DU?$char_traits@D@std@@V?$allocator@D@2@@2@XZ 1002f140     msvcprt:MSVCP90.dll
 0002:00000144       __imp_?begin@?$basic_string@DU?$char_traits@D@std@@V?$allocator@D@2@@std@@QAE?AV?$_String_iterator@DU?$char_traits@D@std@@V?$allocator@D@2@@2@XZ 1002f144     msvcprt:MSVCP90.dll
 0002:00000148       __imp_??$?H_WU?$char_traits@_W@std@@V?$allocator@_W@1@@std@@YA?AV?$basic_string@_WU?$char_traits@_W@std@@V?$allocator@_W@2@@0@PB_WABV10@@Z 1002f148     msvcprt:MSVCP90.dll
 0002:0000014c       __imp_??Y?$basic_string@_WU?$char_traits@_W@std@@V?$allocator@_W@2@@std@@QAEAAV01@ABV01@@Z 1002f14c     msvcprt:MSVCP90.dll
 0002:00000150       __imp_??1?$basic_string@_WU?$char_traits@_W@std@@V?$allocator@_W@2@@std@@QAE@XZ 1002f150     msvcprt:MSVCP90.dll
 0002:00000154       __imp_?c_str@?$basic_string@_WU?$char_traits@_W@std@@V?$allocator@_W@2@@std@@QBEPB_WXZ 1002f154     msvcprt:MSVCP90.dll
 0002:00000158       __imp_??0?$basic_stringstream@DU?$char_traits@D@std@@V?$allocator@D@2@@std@@QAE@H@Z 1002f158     msvcprt:MSVCP90.dll
 0002:0000015c       __imp_?write@?$basic_ostream@DU?$char_traits@D@std@@@std@@QAEAAV12@PBDH@Z 1002f15c     msvcprt:MSVCP90.dll
 0002:00000160       __imp_?str@?$basic_stringstream@DU?$char_traits@D@std@@V?$allocator@D@2@@std@@QBE?AV?$basic_string@DU?$char_traits@D@std@@V?$allocator@D@2@@2@XZ 1002f160     msvcprt:MSVCP90.dll
 0002:00000164       __imp_??0?$basic_stringstream@DU?$char_traits@D@std@@V?$allocator@D@2@@std@@QAE@ABV?$basic_string@DU?$char_traits@D@std@@V?$allocator@D@2@@1@H@Z 1002f164     msvcprt:MSVCP90.dll
 0002:00000168       __imp_?tellg@?$basic_istream@DU?$char_traits@D@std@@@std@@QAE?AV?$fpos@H@2@XZ 1002f168     msvcprt:MSVCP90.dll
 0002:0000016c       __imp_??_D?$basic_stringstream@DU?$char_traits@D@std@@V?$allocator@D@2@@std@@QAEXXZ 1002f16c     msvcprt:MSVCP90.dll
 0002:00000170       __imp_??$?HDU?$char_traits@D@std@@V?$allocator@D@1@@std@@YA?AV?$basic_string@DU?$char_traits@D@std@@V?$allocator@D@2@@0@PBDABV10@@Z 1002f170     msvcprt:MSVCP90.dll
 0002:00000174       __imp_?c_str@?$basic_string@DU?$char_traits@D@std@@V?$allocator@D@2@@std@@QBEPBDXZ 1002f174     msvcprt:MSVCP90.dll
 0002:00000178       __imp_?seekg@?$basic_istream@DU?$char_traits@D@std@@@std@@QAEAAV12@JH@Z 1002f178     msvcprt:MSVCP90.dll
 0002:0000017c       __imp_?length@?$basic_string@DU?$char_traits@D@std@@V?$allocator@D@2@@std@@QBEIXZ 1002f17c     msvcprt:MSVCP90.dll
 0002:00000180       __imp_?push_back@?$basic_string@DU?$char_traits@D@std@@V?$allocator@D@2@@std@@QAEXD@Z 1002f180     msvcprt:MSVCP90.dll
 0002:00000184       __imp_?cout@std@@3V?$basic_ostream@DU?$char_traits@D@std@@@1@A 1002f184     msvcprt:MSVCP90.dll
 0002:00000188       __imp_??4?$basic_string@DU?$char_traits@D@std@@V?$allocator@D@2@@std@@QAEAAV01@ABV01@@Z 1002f188     msvcprt:MSVCP90.dll
 0002:0000018c       __imp_??$?6DU?$char_traits@D@std@@V?$allocator@D@1@@std@@YAAAV?$basic_ostream@DU?$char_traits@D@std@@@0@AAV10@ABV?$basic_string@DU?$char_traits@D@std@@V?$allocator@D@2@@0@@Z 1002f18c     msvcprt:MSVCP90.dll
 0002:00000190       __imp_??0?$basic_string@DU?$char_traits@D@std@@V?$allocator@D@2@@std@@QAE@XZ 1002f190     msvcprt:MSVCP90.dll
 0002:00000194       __imp_??0?$basic_string@DU?$char_traits@D@std@@V?$allocator@D@2@@std@@QAE@PBD@Z 1002f194     msvcprt:MSVCP90.dll
 0002:00000198       __imp_?substr@?$basic_string@DU?$char_traits@D@std@@V?$allocator@D@2@@std@@QBE?AV12@II@Z 1002f198     msvcprt:MSVCP90.dll
 0002:0000019c       __imp_?size@?$basic_string@DU?$char_traits@D@std@@V?$allocator@D@2@@std@@QBEIXZ 1002f19c     msvcprt:MSVCP90.dll
 0002:000001a0       __imp_??A?$basic_string@DU?$char_traits@D@std@@V?$allocator@D@2@@std@@QAEAADI@Z 1002f1a0     msvcprt:MSVCP90.dll
 0002:000001a4       __imp_??0?$basic_string@DU?$char_traits@D@std@@V?$allocator@D@2@@std@@QAE@ABV01@@Z 1002f1a4     msvcprt:MSVCP90.dll
 0002:000001a8       __imp_??1?$basic_string@DU?$char_traits@D@std@@V?$allocator@D@2@@std@@QAE@XZ 1002f1a8     msvcprt:MSVCP90.dll
 0002:000001ac       __imp_?endl@std@@YAAAV?$basic_ostream@DU?$char_traits@D@std@@@1@AAV21@@Z 1002f1ac     msvcprt:MSVCP90.dll
 0002:000001b0       __imp_??6?$basic_ostream@DU?$char_traits@D@std@@@std@@QAEAAV01@I@Z 1002f1b0     msvcprt:MSVCP90.dll
 0002:000001b4       __imp_??6?$basic_ostream@DU?$char_traits@D@std@@@std@@QAEAAV01@P6AAAV01@AAV01@@Z@Z 1002f1b4     msvcprt:MSVCP90.dll
 0002:000001b8       __imp_?_Myptr@?$basic_string@_WU?$char_traits@_W@std@@V?$allocator@_W@2@@std@@IAEPA_WXZ 1002f1b8     msvcprt:MSVCP90.dll
 0002:000001bc       __imp_?sputn@?$basic_streambuf@DU?$char_traits@D@std@@@std@@QAEHPBDH@Z 1002f1bc     msvcprt:MSVCP90.dll
 0002:000001c0       __imp_?width@ios_base@std@@QBEHXZ 1002f1c0     msvcprt:MSVCP90.dll
 0002:000001c4       \177MSVCP90_NULL_THUNK_DATA 1002f1c4     msvcprt:MSVCP90.dll
 0002:000001c8       __imp____CxxFrameHandler3  1002f1c8     MSVCRT:MSVCR90.dll
 0002:000001cc       __imp_??2@YAPAXI@Z         1002f1cc     MSVCRT:MSVCR90.dll
 0002:000001d0       __imp_??3@YAXPAX@Z         1002f1d0     MSVCRT:MSVCR90.dll
 0002:000001d4       __imp__strcpy              1002f1d4     MSVCRT:MSVCR90.dll
 0002:000001d8       __imp____RTDynamicCast     1002f1d8     MSVCRT:MSVCR90.dll
 0002:000001dc       __imp___purecall           1002f1dc     MSVCRT:MSVCR90.dll
 0002:000001e0       __imp_??_V@YAXPAX@Z        1002f1e0     MSVCRT:MSVCR90.dll
 0002:000001e4       __imp__memcpy              1002f1e4     MSVCRT:MSVCR90.dll
 0002:000001e8       __imp__strlen              1002f1e8     MSVCRT:MSVCR90.dll
 0002:000001ec       __imp___CxxThrowException@8 1002f1ec     MSVCRT:MSVCR90.dll
 0002:000001f0       __imp___invalid_parameter_noinfo 1002f1f0     MSVCRT:MSVCR90.dll
 0002:000001f4       __imp_??0exception@std@@QAE@ABV01@@Z 1002f1f4     MSVCRT:MSVCR90.dll
 0002:000001f8       __imp_??1exception@std@@UAE@XZ 1002f1f8     MSVCRT:MSVCR90.dll
 0002:000001fc       __imp_??0exception@std@@QAE@XZ 1002f1fc     MSVCRT:MSVCR90.dll
 0002:00000200       __imp_??0exception@std@@QAE@ABQBD@Z 1002f200     MSVCRT:MSVCR90.dll
 0002:00000204       __imp_?what@exception@std@@UBEPBDXZ 1002f204     MSVCRT:MSVCR90.dll
 0002:00000208       __imp__memmove_s           1002f208     MSVCRT:MSVCR90.dll
 0002:0000020c       __imp__calloc              1002f20c     MSVCRT:MSVCR90.dll
 0002:00000210       __imp__free                1002f210     MSVCRT:MSVCR90.dll
 0002:00000214       __imp__strcmp              1002f214     MSVCRT:MSVCR90.dll
 0002:00000218       __imp__malloc              1002f218     MSVCRT:MSVCR90.dll
 0002:0000021c       __imp__wcscat              1002f21c     MSVCRT:MSVCR90.dll
 0002:00000220       __imp__wcslen              1002f220     MSVCRT:MSVCR90.dll
 0002:00000224       __imp__wcscpy              1002f224     MSVCRT:MSVCR90.dll
 0002:00000228       __imp__wcsstr              1002f228     MSVCRT:MSVCR90.dll
 0002:0000022c       __imp__memset              1002f22c     MSVCRT:MSVCR90.dll
 0002:00000230       __imp__wcsncpy             1002f230     MSVCRT:MSVCR90.dll
 0002:00000234       __imp___wcsicmp            1002f234     MSVCRT:MSVCR90.dll
 0002:00000238       __imp__rand                1002f238     MSVCRT:MSVCR90.dll
 0002:0000023c       __imp__srand               1002f23c     MSVCRT:MSVCR90.dll
 0002:00000240       __imp__strcat              1002f240     MSVCRT:MSVCR90.dll
 0002:00000244       __imp__strncpy             1002f244     MSVCRT:MSVCR90.dll
 0002:00000248       __imp___unlock             1002f248     MSVCRT:MSVCR90.dll
 0002:0000024c       __imp____dllonexit         1002f24c     MSVCRT:MSVCR90.dll
 0002:00000250       __imp___encode_pointer     1002f250     MSVCRT:MSVCR90.dll
 0002:00000254       __imp___lock               1002f254     MSVCRT:MSVCR90.dll
 0002:00000258       __imp___onexit             1002f258     MSVCRT:MSVCR90.dll
 0002:0000025c       __imp___decode_pointer     1002f25c     MSVCRT:MSVCR90.dll
 0002:00000260       __imp___crt_debugger_hook  1002f260     MSVCRT:MSVCR90.dll
 0002:00000264       __imp_?terminate@@YAXXZ    1002f264     MSVCRT:MSVCR90.dll
 0002:00000268       __imp_?_type_info_dtor_internal_method@type_info@@QAEXXZ 1002f268     MSVCRT:MSVCR90.dll
 0002:0000026c       __imp___except_handler4_common 1002f26c     MSVCRT:MSVCR90.dll
 0002:00000270       __imp__tolower             1002f270     MSVCRT:MSVCR90.dll
 0002:00000274       __imp__stricmp             1002f274     MSVCRT:MSVCR90.dll
 0002:00000274       __imp___stricmp            1002f274     MSVCRT:MSVCR90.dll
 0002:00000278       \177MSVCR90_NULL_THUNK_DATA 1002f278     MSVCRT:MSVCR90.dll
 0002:0000027c       __imp__wsprintfW           1002f27c     user32:USER32.dll
 0002:00000280       __imp__GetDesktopWindow@0  1002f280     user32:USER32.dll
 0002:00000284       \177USER32_NULL_THUNK_DATA 1002f284     user32:USER32.dll
 0002:00000288       __imp_?compare@Image@osg@@UBEHABV12@@Z 1002f288     osg:osg63-osg.dll
 0002:0000028c       __imp_?allocateImage@Image@osg@@UAEXHHHIIH@Z 1002f28c     osg:osg63-osg.dll
 0002:00000290       __imp_?setImage@Image@osg@@UAEXHHHHIIPAEW4AllocationMode@12@H@Z 1002f290     osg:osg63-osg.dll
 0002:00000294       __imp_?readPixels@Image@osg@@UAEXHHHHII@Z 1002f294     osg:osg63-osg.dll
 0002:00000298       __imp_?readImageFromCurrentTexture@Image@osg@@UAEXI_NI@Z 1002f298     osg:osg63-osg.dll
 0002:0000029c       __imp_?scaleImage@Image@osg@@UAEXHHHI@Z 1002f29c     osg:osg63-osg.dll
 0002:000002a0       __imp_?copySubImage@Image@osg@@UAEXHHHPBV12@@Z 1002f2a0     osg:osg63-osg.dll
 0002:000002a4       __imp_?isImageTranslucent@Image@osg@@UBE_NXZ 1002f2a4     osg:osg63-osg.dll
 0002:000002a8       __imp_?requiresUpdateCall@Image@osg@@UBE_NXZ 1002f2a8     osg:osg63-osg.dll
 0002:000002ac       __imp_?update@Image@osg@@UAEXPAVNodeVisitor@2@@Z 1002f2ac     osg:osg63-osg.dll
 0002:000002b0       __imp_?sendPointerEvent@Image@osg@@UAE_NHHH@Z 1002f2b0     osg:osg63-osg.dll
 0002:000002b4       __imp_?sendKeyEvent@Image@osg@@UAE_NH_N@Z 1002f2b4     osg:osg63-osg.dll
 0002:000002b8       __imp_?setFrameLastRendered@Image@osg@@UAEXPBVFrameStamp@2@@Z 1002f2b8     osg:osg63-osg.dll
 0002:000002bc       __imp_??1Image@osg@@MAE@XZ 1002f2bc     osg:osg63-osg.dll
 0002:000002c0       __imp_?scaleImage@Image@osg@@QAEXHHH@Z 1002f2c0     osg:osg63-osg.dll
 0002:000002c4       __imp_?libraryName@Image@osg@@UBEPBDXZ 1002f2c4     osg:osg63-osg.dll
 0002:000002c8       __imp_?t@Image@osg@@QBEHXZ 1002f2c8     osg:osg63-osg.dll
 0002:000002cc       __imp_?s@Image@osg@@QBEHXZ 1002f2cc     osg:osg63-osg.dll
 0002:000002d0       __imp_?releaseContext@GraphicsContext@osg@@QAE_NXZ 1002f2d0     osg:osg63-osg.dll
 0002:000002d4       __imp_?makeCurrent@GraphicsContext@osg@@QAE_NXZ 1002f2d4     osg:osg63-osg.dll
 0002:000002d8       __imp_?realize@GraphicsContext@osg@@QAE_NXZ 1002f2d8     osg:osg63-osg.dll
 0002:000002dc       __imp_?createGraphicsContext@GraphicsContext@osg@@SAPAV12@PAUTraits@12@@Z 1002f2dc     osg:osg63-osg.dll
 0002:000002e0       __imp_?getMinimumNumAlphaBits@DisplaySettings@osg@@QBEIXZ 1002f2e0     osg:osg63-osg.dll
 0002:000002e4       __imp_??0Traits@GraphicsContext@osg@@QAE@PAVDisplaySettings@2@@Z 1002f2e4     osg:osg63-osg.dll
 0002:000002e8       __imp_?instance@DisplaySettings@osg@@SAPAV12@XZ 1002f2e8     osg:osg63-osg.dll
 0002:000002ec       __imp_??1Traits@GraphicsContext@osg@@UAE@XZ 1002f2ec     osg:osg63-osg.dll
 0002:000002f0       __imp_?getStateSet@Drawable@osg@@QAEPAVStateSet@2@XZ 1002f2f0     osg:osg63-osg.dll
 0002:000002f4       __imp_?getFileName@Image@osg@@QBEABV?$basic_string@DU?$char_traits@D@std@@V?$allocator@D@2@@std@@XZ 1002f2f4     osg:osg63-osg.dll
 0002:000002f8       __imp_?getTextureAttribute@StateSet@osg@@QAEPAVStateAttribute@2@IW4Type@32@@Z 1002f2f8     osg:osg63-osg.dll
 0002:000002fc       __imp_?getTextureAttributeList@StateSet@osg@@QAEAAV?$vector@V?$map@U?$pair@W4Type@StateAttribute@osg@@I@std@@U?$pair@V?$ref_ptr@VStateAttribute@osg@@@osg@@I@2@U?$less@U?$pair@W4Type@StateAttribute@osg@@I@std@@@2@V?$allocator@U?$pair@$$CBU?$pair@W4Type@StateAttribute@osg@@I@std@@U?$pair@V?$ref_ptr@VStateAttribute@osg@@@osg@@I@2@@std@@@2@@std@@V?$allocator@V?$map@U?$pair@W4Type@StateAttribute@osg@@I@std@@U?$pair@V?$ref_ptr@VStateAttribute@osg@@@osg@@I@2@U?$less@U?$pair@W4Type@StateAttribute@osg@@I@std@@@2@V?$allocator@U?$pair@$$CBU?$pair@W4Type@StateAttribute@osg@@I@std@@U?$pair@V?$ref_ptr@VStateAttribute@osg@@@osg@@I@2@@std@@@2@@std@@@2@@std@@XZ 1002f2fc     osg:osg63-osg.dll
 0002:00000300       __imp_?getParent@Node@osg@@QAEPAVGroup@2@I@Z 1002f300     osg:osg63-osg.dll
 0002:00000304       __imp_?getNumParents@Node@osg@@QBEIXZ 1002f304     osg:osg63-osg.dll
 0002:00000308       __imp_?ref@Referenced@osg@@QBEXXZ 1002f308     osg:osg63-osg.dll
 0002:0000030c       __imp_?unref@Referenced@osg@@QBEXXZ 1002f30c     osg:osg63-osg.dll
 0002:00000310       __imp_??0DrawElementsUShort@osg@@QAE@I@Z 1002f310     osg:osg63-osg.dll
 0002:00000314       __imp_?cloneType@DrawElementsUShort@osg@@UBEPAVObject@2@XZ 1002f314     osg:osg63-osg.dll
 0002:00000318       __imp_?clone@DrawElementsUShort@osg@@UBEPAVObject@2@ABVCopyOp@2@@Z 1002f318     osg:osg63-osg.dll
 0002:0000031c       __imp_?isSameKindAs@DrawElementsUShort@osg@@UBE_NPBVObject@2@@Z 1002f31c     osg:osg63-osg.dll
 0002:00000320       __imp_?libraryName@DrawElementsUShort@osg@@UBEPBDXZ 1002f320     osg:osg63-osg.dll
 0002:00000324       __imp_?className@DrawElementsUShort@osg@@UBEPBDXZ 1002f324     osg:osg63-osg.dll
 0002:00000328       __imp_?getDataPointer@DrawElementsUShort@osg@@UBEPBXXZ 1002f328     osg:osg63-osg.dll
 0002:0000032c       __imp_?getTotalDataSize@DrawElementsUShort@osg@@UBEIXZ 1002f32c     osg:osg63-osg.dll
 0002:00000330       __imp_?supportsBufferObject@DrawElementsUShort@osg@@UBE_NXZ 1002f330     osg:osg63-osg.dll
 0002:00000334       __imp_?draw@DrawElementsUShort@osg@@UBEXAAVState@2@_N@Z 1002f334     osg:osg63-osg.dll
 0002:00000338       __imp_?accept@DrawElementsUShort@osg@@UBEXAAVPrimitiveIndexFunctor@2@@Z 1002f338     osg:osg63-osg.dll
 0002:0000033c       __imp_?accept@DrawElementsUShort@osg@@UBEXAAVPrimitiveFunctor@2@@Z 1002f33c     osg:osg63-osg.dll
 0002:00000340       __imp_?index@DrawElementsUShort@osg@@UBEII@Z 1002f340     osg:osg63-osg.dll
 0002:00000344       __imp_?getNumIndices@DrawElementsUShort@osg@@UBEIXZ 1002f344     osg:osg63-osg.dll
 0002:00000348       __imp_?offsetIndices@DrawElementsUShort@osg@@UAEXH@Z 1002f348     osg:osg63-osg.dll
 0002:0000034c       __imp_?computeRange@DrawElementsUShort@osg@@UBEXXZ 1002f34c     osg:osg63-osg.dll
 0002:00000350       __imp_?reserveElements@DrawElementsUShort@osg@@UAEXI@Z 1002f350     osg:osg63-osg.dll
 0002:00000354       __imp_?setElement@DrawElementsUShort@osg@@UAEXII@Z 1002f354     osg:osg63-osg.dll
 0002:00000358       __imp_?getElement@DrawElementsUShort@osg@@UAEII@Z 1002f358     osg:osg63-osg.dll
 0002:0000035c       __imp_?addElement@DrawElementsUShort@osg@@UAEXI@Z 1002f35c     osg:osg63-osg.dll
 0002:00000360       __imp_??1DrawElementsUShort@osg@@MAE@XZ 1002f360     osg:osg63-osg.dll
 0002:00000364       __imp_??0DrawElementsUByte@osg@@QAE@I@Z 1002f364     osg:osg63-osg.dll
 0002:00000368       __imp_?cloneType@DrawElementsUByte@osg@@UBEPAVObject@2@XZ 1002f368     osg:osg63-osg.dll
 0002:0000036c       __imp_?clone@DrawElementsUByte@osg@@UBEPAVObject@2@ABVCopyOp@2@@Z 1002f36c     osg:osg63-osg.dll
 0002:00000370       __imp_?isSameKindAs@DrawElementsUByte@osg@@UBE_NPBVObject@2@@Z 1002f370     osg:osg63-osg.dll
 0002:00000374       __imp_?libraryName@DrawElementsUByte@osg@@UBEPBDXZ 1002f374     osg:osg63-osg.dll
 0002:00000378       __imp_?className@DrawElementsUByte@osg@@UBEPBDXZ 1002f378     osg:osg63-osg.dll
 0002:0000037c       __imp_?getDataPointer@DrawElementsUByte@osg@@UBEPBXXZ 1002f37c     osg:osg63-osg.dll
 0002:00000380       __imp_?getTotalDataSize@DrawElementsUByte@osg@@UBEIXZ 1002f380     osg:osg63-osg.dll
 0002:00000384       __imp_?supportsBufferObject@DrawElementsUByte@osg@@UBE_NXZ 1002f384     osg:osg63-osg.dll
 0002:00000388       __imp_?getTotalDataSize@Image@osg@@UBEIXZ 1002f388     osg:osg63-osg.dll
 0002:0000038c       __imp_?accept@DrawElementsUByte@osg@@UBEXAAVPrimitiveIndexFunctor@2@@Z 1002f38c     osg:osg63-osg.dll
 0002:00000390       __imp_?accept@DrawElementsUByte@osg@@UBEXAAVPrimitiveFunctor@2@@Z 1002f390     osg:osg63-osg.dll
 0002:00000394       __imp_?index@DrawElementsUByte@osg@@UBEII@Z 1002f394     osg:osg63-osg.dll
 0002:00000398       __imp_?getNumIndices@DrawElementsUByte@osg@@UBEIXZ 1002f398     osg:osg63-osg.dll
 0002:0000039c       __imp_?offsetIndices@DrawElementsUByte@osg@@UAEXH@Z 1002f39c     osg:osg63-osg.dll
 0002:000003a0       __imp_?computeRange@DrawElementsUByte@osg@@UBEXXZ 1002f3a0     osg:osg63-osg.dll
 0002:000003a4       __imp_?reserveElements@DrawElementsUByte@osg@@UAEXI@Z 1002f3a4     osg:osg63-osg.dll
 0002:000003a8       __imp_?setElement@DrawElementsUByte@osg@@UAEXII@Z 1002f3a8     osg:osg63-osg.dll
 0002:000003ac       __imp_?getElement@DrawElementsUByte@osg@@UAEII@Z 1002f3ac     osg:osg63-osg.dll
 0002:000003b0       __imp_?addElement@DrawElementsUByte@osg@@UAEXI@Z 1002f3b0     osg:osg63-osg.dll
 0002:000003b4       __imp_??1DrawElementsUByte@osg@@MAE@XZ 1002f3b4     osg:osg63-osg.dll
 0002:000003b8       __imp_?push_back@?$MixinVector@I@osg@@QAEXABI@Z 1002f3b8     osg:osg63-osg.dll
 0002:000003bc       __imp_?setMode@PrimitiveSet@osg@@QAEXI@Z 1002f3bc     osg:osg63-osg.dll
 0002:000003c0       __imp_?push_back@?$MixinVector@G@osg@@QAEXABG@Z 1002f3c0     osg:osg63-osg.dll
 0002:000003c4       __imp_?push_back@?$MixinVector@E@osg@@QAEXABE@Z 1002f3c4     osg:osg63-osg.dll
 0002:000003c8       __imp_?isSameKindAs@Image@osg@@UBE_NPBVObject@2@@Z 1002f3c8     osg:osg63-osg.dll
 0002:000003cc       __imp_?clone@Image@osg@@UBEPAVObject@2@ABVCopyOp@2@@Z 1002f3cc     osg:osg63-osg.dll
 0002:000003d0       __imp_?cloneType@Image@osg@@UBEPAVObject@2@XZ 1002f3d0     osg:osg63-osg.dll
 0002:000003d4       __imp_??0Image@osg@@QAE@XZ 1002f3d4     osg:osg63-osg.dll
 0002:000003d8       __imp_?setFileName@Image@osg@@QAEXABV?$basic_string@DU?$char_traits@D@std@@V?$allocator@D@2@@std@@@Z 1002f3d8     osg:osg63-osg.dll
 0002:000003dc       __imp_??1Group@osg@@MAE@XZ 1002f3dc     osg:osg63-osg.dll
 0002:000003e0       __imp_?childInserted@Group@osg@@MAEXI@Z 1002f3e0     osg:osg63-osg.dll
 0002:000003e4       __imp_?childRemoved@Group@osg@@MAEXII@Z 1002f3e4     osg:osg63-osg.dll
 0002:000003e8       __imp_?setChild@Group@osg@@UAE_NIPAVNode@2@@Z 1002f3e8     osg:osg63-osg.dll
 0002:000003ec       __imp_?replaceChild@Group@osg@@UAE_NPAVNode@2@0@Z 1002f3ec     osg:osg63-osg.dll
 0002:000003f0       __imp_?removeChildren@Group@osg@@UAE_NII@Z 1002f3f0     osg:osg63-osg.dll
 0002:000003f4       __imp_?insertChild@Group@osg@@UAE_NIPAVNode@2@@Z 1002f3f4     osg:osg63-osg.dll
 0002:000003f8       __imp_?addChild@Group@osg@@UAE_NPAVNode@2@@Z 1002f3f8     osg:osg63-osg.dll
 0002:000003fc       __imp_?computeBound@Group@osg@@UBE?AV?$BoundingSphereImpl@VVec3f@osg@@@2@XZ 1002f3fc     osg:osg63-osg.dll
 0002:00000400       __imp_?traverse@Group@osg@@UAEXAAVNodeVisitor@2@@Z 1002f400     osg:osg63-osg.dll
 0002:00000404       __imp_?ascend@Node@osg@@UAEXAAVNodeVisitor@2@@Z 1002f404     osg:osg63-osg.dll
 0002:00000408       __imp_?accept@Group@osg@@UAEXAAVNodeVisitor@2@@Z 1002f408     osg:osg63-osg.dll
 0002:0000040c       __imp_?asGeode@Node@osg@@UAEPAVGeode@2@XZ 1002f40c     osg:osg63-osg.dll
 0002:00000410       __imp_?asGeode@Node@osg@@UBEPBVGeode@2@XZ 1002f410     osg:osg63-osg.dll
 0002:00000414       __imp_?asSwitch@Node@osg@@UAEPAVSwitch@2@XZ 1002f414     osg:osg63-osg.dll
 0002:00000418       __imp_?asSwitch@Node@osg@@UBEPBVSwitch@2@XZ 1002f418     osg:osg63-osg.dll
 0002:0000041c       __imp_?asTransform@Node@osg@@UAEPAVTransform@2@XZ 1002f41c     osg:osg63-osg.dll
 0002:00000420       __imp_?asTransform@Node@osg@@UBEPBVTransform@2@XZ 1002f420     osg:osg63-osg.dll
 0002:00000424       __imp_?asGroup@Group@osg@@UAEPAV12@XZ 1002f424     osg:osg63-osg.dll
 0002:00000428       __imp_?asGroup@Group@osg@@UBEPBV12@XZ 1002f428     osg:osg63-osg.dll
 0002:0000042c       __imp_?releaseGLObjects@Group@osg@@UBEXPAVState@2@@Z 1002f42c     osg:osg63-osg.dll
 0002:00000430       __imp_?resizeGLObjectBuffers@Group@osg@@UAEXI@Z 1002f430     osg:osg63-osg.dll
 0002:00000434       __imp_?className@Group@osg@@UBEPBDXZ 1002f434     osg:osg63-osg.dll
 0002:00000438       __imp_?libraryName@Group@osg@@UBEPBDXZ 1002f438     osg:osg63-osg.dll
 0002:0000043c       __imp_?isSameKindAs@Group@osg@@UBE_NPBVObject@2@@Z 1002f43c     osg:osg63-osg.dll
 0002:00000440       __imp_?clone@Group@osg@@UBEPAVObject@2@ABVCopyOp@2@@Z 1002f440     osg:osg63-osg.dll
 0002:00000444       __imp_?cloneType@Group@osg@@UBEPAVObject@2@XZ 1002f444     osg:osg63-osg.dll
 0002:00000448       __imp_?setThreadSafeRefUnref@Group@osg@@UAEX_N@Z 1002f448     osg:osg63-osg.dll
 0002:0000044c       __imp_??0Group@osg@@QAE@XZ 1002f44c     osg:osg63-osg.dll
 0002:00000450       __imp_?getVertexArray@Geometry@osg@@QAEPAVArray@2@XZ 1002f450     osg:osg63-osg.dll
 0002:00000454       __imp_?setNotifyLevel@osg@@YAXW4NotifySeverity@1@@Z 1002f454     osg:osg63-osg.dll
 0002:00000458       __imp_??1DrawElementsUInt@osg@@MAE@XZ 1002f458     osg:osg63-osg.dll
 0002:0000045c       __imp_?addElement@DrawElementsUInt@osg@@UAEXI@Z 1002f45c     osg:osg63-osg.dll
 0002:00000460       __imp_?getElement@DrawElementsUInt@osg@@UAEII@Z 1002f460     osg:osg63-osg.dll
 0002:00000464       __imp_?setElement@DrawElementsUInt@osg@@UAEXII@Z 1002f464     osg:osg63-osg.dll
 0002:00000468       __imp_?reserveElements@DrawElementsUInt@osg@@UAEXI@Z 1002f468     osg:osg63-osg.dll
 0002:0000046c       __imp_?computeRange@DrawElementsUInt@osg@@UBEXXZ 1002f46c     osg:osg63-osg.dll
 0002:00000470       __imp_?getNumPrimitives@PrimitiveSet@osg@@UBEIXZ 1002f470     osg:osg63-osg.dll
 0002:00000474       __imp_?offsetIndices@DrawElementsUInt@osg@@UAEXH@Z 1002f474     osg:osg63-osg.dll
 0002:00000478       __imp_?getNumIndices@DrawElementsUInt@osg@@UBEIXZ 1002f478     osg:osg63-osg.dll
 0002:0000047c       __imp_?index@DrawElementsUInt@osg@@UBEII@Z 1002f47c     osg:osg63-osg.dll
 0002:00000480       __imp_?accept@DrawElementsUInt@osg@@UBEXAAVPrimitiveFunctor@2@@Z 1002f480     osg:osg63-osg.dll
 0002:00000484       __imp_?accept@DrawElementsUInt@osg@@UBEXAAVPrimitiveIndexFunctor@2@@Z 1002f484     osg:osg63-osg.dll
 0002:00000488       __imp_?getDataPointer@Image@osg@@UBEPBXXZ 1002f488     osg:osg63-osg.dll
 0002:0000048c       __imp_?draw@DrawElementsUByte@osg@@UBEXAAVState@2@_N@Z 1002f48c     osg:osg63-osg.dll
 0002:00000490       __imp_?className@Image@osg@@UBEPBDXZ 1002f490     osg:osg63-osg.dll
 0002:00000494       __imp_?draw@DrawElementsUInt@osg@@UBEXAAVState@2@_N@Z 1002f494     osg:osg63-osg.dll
 0002:00000498       __imp_?supportsBufferObject@DrawElementsUInt@osg@@UBE_NXZ 1002f498     osg:osg63-osg.dll
 0002:0000049c       __imp_?getTotalDataSize@DrawElementsUInt@osg@@UBEIXZ 1002f49c     osg:osg63-osg.dll
 0002:000004a0       __imp_?getDataPointer@DrawElementsUInt@osg@@UBEPBXXZ 1002f4a0     osg:osg63-osg.dll
 0002:000004a4       __imp_?releaseGLObjects@Object@osg@@UBEXPAVState@2@@Z 1002f4a4     osg:osg63-osg.dll
 0002:000004a8       __imp_?resizeGLObjectBuffers@Object@osg@@UAEXI@Z 1002f4a8     osg:osg63-osg.dll
 0002:000004ac       __imp_?computeDataVariance@Object@osg@@UAEXXZ 1002f4ac     osg:osg63-osg.dll
 0002:000004b0       __imp_?className@DrawElementsUInt@osg@@UBEPBDXZ 1002f4b0     osg:osg63-osg.dll
 0002:000004b4       __imp_?libraryName@DrawElementsUInt@osg@@UBEPBDXZ 1002f4b4     osg:osg63-osg.dll
 0002:000004b8       __imp_?isSameKindAs@DrawElementsUInt@osg@@UBE_NPBVObject@2@@Z 1002f4b8     osg:osg63-osg.dll
 0002:000004bc       __imp_?clone@DrawElementsUInt@osg@@UBEPAVObject@2@ABVCopyOp@2@@Z 1002f4bc     osg:osg63-osg.dll
 0002:000004c0       __imp_?cloneType@DrawElementsUInt@osg@@UBEPAVObject@2@XZ 1002f4c0     osg:osg63-osg.dll
 0002:000004c4       __imp_?getNumPrimitiveSets@Geometry@osg@@QBEIXZ 1002f4c4     osg:osg63-osg.dll
 0002:000004c8       __imp_?getPrimitiveSet@Geometry@osg@@QAEPAVPrimitiveSet@2@I@Z 1002f4c8     osg:osg63-osg.dll
 0002:000004cc       __imp_?getType@PrimitiveSet@osg@@QBE?AW4Type@12@XZ 1002f4cc     osg:osg63-osg.dll
 0002:000004d0       __imp_?getMode@PrimitiveSet@osg@@QBEIXZ 1002f4d0     osg:osg63-osg.dll
 0002:000004d4       __imp_?getFirst@DrawArrays@osg@@QBEHXZ 1002f4d4     osg:osg63-osg.dll
 0002:000004d8       __imp_?getCount@DrawArrays@osg@@QBEHXZ 1002f4d8     osg:osg63-osg.dll
 0002:000004dc       __imp_??0DrawElementsUInt@osg@@QAE@I@Z 1002f4dc     osg:osg63-osg.dll
 0002:000004e0       __imp_?setPrimitiveSet@Geometry@osg@@QAE_NIPAVPrimitiveSet@2@@Z 1002f4e0     osg:osg63-osg.dll
 0002:000004e4       __imp_??1NodeVisitor@osg@@UAE@XZ 1002f4e4     osg:osg63-osg.dll
 0002:000004e8       __imp_?traverse@NodeVisitor@osg@@QAEXAAVNode@2@@Z 1002f4e8     osg:osg63-osg.dll
 0002:000004ec       __imp_?getName@Object@osg@@QBEABV?$basic_string@DU?$char_traits@D@std@@V?$allocator@D@2@@std@@XZ 1002f4ec     osg:osg63-osg.dll
 0002:000004f0       __imp_?setName@Object@osg@@QAEXABV?$basic_string@DU?$char_traits@D@std@@V?$allocator@D@2@@std@@@Z 1002f4f0     osg:osg63-osg.dll
 0002:000004f4       __imp_?getNumDrawables@Geode@osg@@QBEIXZ 1002f4f4     osg:osg63-osg.dll
 0002:000004f8       __imp_?getDrawable@Geode@osg@@QAEPAVDrawable@2@I@Z 1002f4f8     osg:osg63-osg.dll
 0002:000004fc       __imp_?getStateSet@Node@osg@@QAEPAVStateSet@2@XZ 1002f4fc     osg:osg63-osg.dll
 0002:00000500       __imp_?setThreadSafeRefUnref@Referenced@osg@@UAEX_N@Z 1002f500     osg:osg63-osg.dll
 0002:00000504       __imp_?apply@NodeVisitor@osg@@UAEXAAVBillboard@2@@Z 1002f504     osg:osg63-osg.dll
 0002:00000508       __imp_?apply@NodeVisitor@osg@@UAEXAAVGroup@2@@Z 1002f508     osg:osg63-osg.dll
 0002:0000050c       __imp_?apply@NodeVisitor@osg@@UAEXAAVProxyNode@2@@Z 1002f50c     osg:osg63-osg.dll
 0002:00000510       __imp_?apply@NodeVisitor@osg@@UAEXAAVProjection@2@@Z 1002f510     osg:osg63-osg.dll
 0002:00000514       __imp_?apply@NodeVisitor@osg@@UAEXAAVCoordinateSystemNode@2@@Z 1002f514     osg:osg63-osg.dll
 0002:00000518       __imp_?apply@NodeVisitor@osg@@UAEXAAVClipNode@2@@Z 1002f518     osg:osg63-osg.dll
 0002:0000051c       __imp_?apply@NodeVisitor@osg@@UAEXAAVTexGenNode@2@@Z 1002f51c     osg:osg63-osg.dll
 0002:00000520       __imp_?apply@NodeVisitor@osg@@UAEXAAVLightSource@2@@Z 1002f520     osg:osg63-osg.dll
 0002:00000524       __imp_?apply@NodeVisitor@osg@@UAEXAAVTransform@2@@Z 1002f524     osg:osg63-osg.dll
 0002:00000528       __imp_?apply@NodeVisitor@osg@@UAEXAAVCamera@2@@Z 1002f528     osg:osg63-osg.dll
 0002:0000052c       __imp_?apply@NodeVisitor@osg@@UAEXAAVCameraView@2@@Z 1002f52c     osg:osg63-osg.dll
 0002:00000530       __imp_?apply@NodeVisitor@osg@@UAEXAAVMatrixTransform@2@@Z 1002f530     osg:osg63-osg.dll
 0002:00000534       __imp_?apply@NodeVisitor@osg@@UAEXAAVPositionAttitudeTransform@2@@Z 1002f534     osg:osg63-osg.dll
 0002:00000538       __imp_?apply@NodeVisitor@osg@@UAEXAAVSwitch@2@@Z 1002f538     osg:osg63-osg.dll
 0002:0000053c       __imp_?apply@NodeVisitor@osg@@UAEXAAVSequence@2@@Z 1002f53c     osg:osg63-osg.dll
 0002:00000540       __imp_?apply@NodeVisitor@osg@@UAEXAAVLOD@2@@Z 1002f540     osg:osg63-osg.dll
 0002:00000544       __imp_?apply@NodeVisitor@osg@@UAEXAAVPagedLOD@2@@Z 1002f544     osg:osg63-osg.dll
 0002:00000548       __imp_?apply@NodeVisitor@osg@@UAEXAAVClearNode@2@@Z 1002f548     osg:osg63-osg.dll
 0002:0000054c       __imp_?apply@NodeVisitor@osg@@UAEXAAVOccluderNode@2@@Z 1002f54c     osg:osg63-osg.dll
 0002:00000550       __imp_?apply@NodeVisitor@osg@@UAEXAAVOcclusionQueryNode@2@@Z 1002f550     osg:osg63-osg.dll
 0002:00000554       __imp_?getDistanceToViewPoint@NodeVisitor@osg@@UBEMABVVec3f@2@_N@Z 1002f554     osg:osg63-osg.dll
 0002:00000558       __imp_?getDistanceFromEyePoint@NodeVisitor@osg@@UBEMABVVec3f@2@_N@Z 1002f558     osg:osg63-osg.dll
 0002:0000055c       __imp_?getDistanceToEyePoint@NodeVisitor@osg@@UBEMABVVec3f@2@_N@Z 1002f55c     osg:osg63-osg.dll
 0002:00000560       __imp_?getViewPoint@NodeVisitor@osg@@UBE?AVVec3f@2@XZ 1002f560     osg:osg63-osg.dll
 0002:00000564       __imp_?getEyePoint@NodeVisitor@osg@@UBE?AVVec3f@2@XZ 1002f564     osg:osg63-osg.dll
 0002:00000568       __imp_?reset@NodeVisitor@osg@@UAEXXZ 1002f568     osg:osg63-osg.dll
 0002:0000056c       __imp_?className@NodeVisitor@osg@@UBEPBDXZ 1002f56c     osg:osg63-osg.dll
 0002:00000570       __imp_?libraryName@NodeVisitor@osg@@UBEPBDXZ 1002f570     osg:osg63-osg.dll
 0002:00000574       __imp_??0Referenced@osg@@QAE@XZ 1002f574     osg:osg63-osg.dll
 0002:00000578       __imp_??0NodeVisitor@osg@@QAE@W4TraversalMode@01@@Z 1002f578     osg:osg63-osg.dll
 0002:0000057c       __imp_??1Referenced@osg@@MAE@XZ 1002f57c     osg:osg63-osg.dll
 0002:00000580       __imp_?notify@osg@@YAAAV?$basic_ostream@DU?$char_traits@D@std@@@std@@W4NotifySeverity@1@@Z 1002f580     osg:osg63-osg.dll
 0002:00000584       __imp_?r@Image@osg@@QBEHXZ 1002f584     osg:osg63-osg.dll
 0002:00000588       \177osg63-osg_NULL_THUNK_DATA 1002f588     osg:osg63-osg.dll
 0002:0000058c       __imp_?validNode@ReadResult@ReaderWriter@osgDB@@QAE_NXZ 1002f58c     osgDB:osg63-osgDB.dll
 0002:00000590       __imp_?instance@Registry@osgDB@@SAPAV12@_N@Z 1002f590     osgDB:osg63-osgDB.dll
 0002:00000594       __imp_?readNodeFile@osgDB@@YAPAVNode@osg@@ABV?$basic_string@DU?$char_traits@D@std@@V?$allocator@D@2@@std@@PBVOptions@1@@Z 1002f594     osgDB:osg63-osgDB.dll
 0002:00000598       __imp_?getNode@ReadResult@ReaderWriter@osgDB@@QAEPAVNode@osg@@XZ 1002f598     osgDB:osg63-osgDB.dll
 0002:0000059c       __imp_??1ReadResult@ReaderWriter@osgDB@@QAE@XZ 1002f59c     osgDB:osg63-osgDB.dll
 0002:000005a0       __imp_?status@ReadResult@ReaderWriter@osgDB@@QBE?AW4ReadStatus@123@XZ 1002f5a0     osgDB:osg63-osgDB.dll
 0002:000005a4       __imp_?setObjectCacheHint@Options@osgDB@@QAEXW4CacheHintOptions@12@@Z 1002f5a4     osgDB:osg63-osgDB.dll
 0002:000005a8       __imp_?getReaderWriterForExtension@Registry@osgDB@@QAEPAVReaderWriter@2@ABV?$basic_string@DU?$char_traits@D@std@@V?$allocator@D@2@@std@@@Z 1002f5a8     osgDB:osg63-osgDB.dll
 0002:000005ac       __imp_??0Options@osgDB@@QAE@XZ 1002f5ac     osgDB:osg63-osgDB.dll
 0002:000005b0       __imp_?cloneType@Options@osgDB@@UBEPAVObject@osg@@XZ 1002f5b0     osgDB:osg63-osgDB.dll
 0002:000005b4       __imp_?clone@Options@osgDB@@UBEPAVObject@osg@@ABVCopyOp@4@@Z 1002f5b4     osgDB:osg63-osgDB.dll
 0002:000005b8       __imp_?isSameKindAs@Options@osgDB@@UBE_NPBVObject@osg@@@Z 1002f5b8     osgDB:osg63-osgDB.dll
 0002:000005bc       __imp_?libraryName@Options@osgDB@@UBEPBDXZ 1002f5bc     osgDB:osg63-osgDB.dll
 0002:000005c0       __imp_?className@Options@osgDB@@UBEPBDXZ 1002f5c0     osgDB:osg63-osgDB.dll
 0002:000005c4       __imp_??1Options@osgDB@@MAE@XZ 1002f5c4     osgDB:osg63-osgDB.dll
 0002:000005c8       __imp_?getPluginData@Options@osgDB@@QAEPAXABV?$basic_string@DU?$char_traits@D@std@@V?$allocator@D@2@@std@@@Z 1002f5c8     osgDB:osg63-osgDB.dll
 0002:000005cc       __imp_?setPluginData@Options@osgDB@@QBEXABV?$basic_string@DU?$char_traits@D@std@@V?$allocator@D@2@@std@@PAX@Z 1002f5cc     osgDB:osg63-osgDB.dll
 0002:000005d0       __imp_?setReadFileCallback@Registry@osgDB@@QAEXPAVReadFileCallback@2@@Z 1002f5d0     osgDB:osg63-osgDB.dll
 0002:000005d4       __imp_?openArchive@ReadFileCallback@osgDB@@UAE?AVReadResult@ReaderWriter@2@ABV?$basic_string@DU?$char_traits@D@std@@V?$allocator@D@2@@std@@W4ArchiveStatus@42@IPBVOptions@2@@Z 1002f5d4     osgDB:osg63-osgDB.dll
 0002:000005d8       __imp_??0ReadResult@ReaderWriter@osgDB@@QAE@ABV012@@Z 1002f5d8     osgDB:osg63-osgDB.dll
 0002:000005dc       __imp_?readNodeImplementation@Registry@osgDB@@QAE?AVReadResult@ReaderWriter@2@ABV?$basic_string@DU?$char_traits@D@std@@V?$allocator@D@2@@std@@PBVOptions@2@@Z 1002f5dc     osgDB:osg63-osgDB.dll
 0002:000005e0       __imp_?readHeightFieldImplementation@Registry@osgDB@@QAE?AVReadResult@ReaderWriter@2@ABV?$basic_string@DU?$char_traits@D@std@@V?$allocator@D@2@@std@@PBVOptions@2@@Z 1002f5e0     osgDB:osg63-osgDB.dll
 0002:000005e4       __imp_?readShaderImplementation@Registry@osgDB@@QAE?AVReadResult@ReaderWriter@2@ABV?$basic_string@DU?$char_traits@D@std@@V?$allocator@D@2@@std@@PBVOptions@2@@Z 1002f5e4     osgDB:osg63-osgDB.dll
 0002:000005e8       __imp_??0ReadResult@ReaderWriter@osgDB@@QAE@PAVObject@osg@@W4ReadStatus@012@@Z 1002f5e8     osgDB:osg63-osgDB.dll
 0002:000005ec       __imp_??0ReadResult@ReaderWriter@osgDB@@QAE@ABV?$basic_string@DU?$char_traits@D@std@@V?$allocator@D@2@@std@@@Z 1002f5ec     osgDB:osg63-osgDB.dll
 0002:000005f0       __imp_?getSimpleFileName@osgDB@@YA?AV?$basic_string@DU?$char_traits@D@std@@V?$allocator@D@2@@std@@ABV23@@Z 1002f5f0     osgDB:osg63-osgDB.dll
 0002:000005f4       __imp_?writeNodeFile@osgDB@@YA_NABVNode@osg@@ABV?$basic_string@DU?$char_traits@D@std@@V?$allocator@D@2@@std@@PBVOptions@1@@Z 1002f5f4     osgDB:osg63-osgDB.dll
 0002:000005f8       __imp_?getOptions@Registry@osgDB@@QAEPAVOptions@2@XZ 1002f5f8     osgDB:osg63-osgDB.dll
 0002:000005fc       __imp_?getFilePath@osgDB@@YA?AV?$basic_string@DU?$char_traits@D@std@@V?$allocator@D@2@@std@@ABV23@@Z 1002f5fc     osgDB:osg63-osgDB.dll
 0002:00000600       __imp_?closeAllLibraries@Registry@osgDB@@QAEXXZ 1002f600     osgDB:osg63-osgDB.dll
 0002:00000604       __imp_?clearArchiveCache@Registry@osgDB@@QAEXXZ 1002f604     osgDB:osg63-osgDB.dll
 0002:00000608       __imp_?clearObjectCache@Registry@osgDB@@QAEXXZ 1002f608     osgDB:osg63-osgDB.dll
 0002:0000060c       __imp_?releaseGLObjects@Registry@osgDB@@QAEXPAVState@osg@@@Z 1002f60c     osgDB:osg63-osgDB.dll
 0002:00000610       __imp_?getStrippedName@osgDB@@YA?AV?$basic_string@DU?$char_traits@D@std@@V?$allocator@D@2@@std@@ABV23@@Z 1002f610     osgDB:osg63-osgDB.dll
 0002:00000614       __imp_?getImage@ReadResult@ReaderWriter@osgDB@@QAEPAVImage@osg@@XZ 1002f614     osgDB:osg63-osgDB.dll
 0002:00000618       __imp_?getFileExtension@osgDB@@YA?AV?$basic_string@DU?$char_traits@D@std@@V?$allocator@D@2@@std@@ABV23@@Z 1002f618     osgDB:osg63-osgDB.dll
 0002:0000061c       __imp_??0ReadFileCallback@osgDB@@QAE@XZ 1002f61c     osgDB:osg63-osgDB.dll
 0002:00000620       __imp_?setLibraryFilePathList@Registry@osgDB@@QAEXABV?$basic_string@DU?$char_traits@D@std@@V?$allocator@D@2@@std@@@Z 1002f620     osgDB:osg63-osgDB.dll
 0002:00000624       __imp_?takeNode@ReadResult@ReaderWriter@osgDB@@QAEPAVNode@osg@@XZ 1002f624     osgDB:osg63-osgDB.dll
 0002:00000628       __imp_?validImage@ReadResult@ReaderWriter@osgDB@@QAE_NXZ 1002f628     osgDB:osg63-osgDB.dll
 0002:0000062c       __imp_?takeImage@ReadResult@ReaderWriter@osgDB@@QAEPAVImage@osg@@XZ 1002f62c     osgDB:osg63-osgDB.dll
 0002:00000630       __imp_?validObject@ReadResult@ReaderWriter@osgDB@@QAE_NXZ 1002f630     osgDB:osg63-osgDB.dll
 0002:00000634       __imp_?takeObject@ReadResult@ReaderWriter@osgDB@@QAEPAVObject@osg@@XZ 1002f634     osgDB:osg63-osgDB.dll
 0002:00000638       __imp_?validShader@ReadResult@ReaderWriter@osgDB@@QAE_NXZ 1002f638     osgDB:osg63-osgDB.dll
 0002:0000063c       __imp_?takeShader@ReadResult@ReaderWriter@osgDB@@QAEPAVShader@osg@@XZ 1002f63c     osgDB:osg63-osgDB.dll
 0002:00000640       __imp_?validHeightField@ReadResult@ReaderWriter@osgDB@@QAE_NXZ 1002f640     osgDB:osg63-osgDB.dll
 0002:00000644       __imp_?takeHeightField@ReadResult@ReaderWriter@osgDB@@QAEPAVHeightField@osg@@XZ 1002f644     osgDB:osg63-osgDB.dll
 0002:00000648       __imp_??1ReadFileCallback@osgDB@@MAE@XZ 1002f648     osgDB:osg63-osgDB.dll
 0002:0000064c       __imp_?readImageImplementation@Registry@osgDB@@QAE?AVReadResult@ReaderWriter@2@ABV?$basic_string@DU?$char_traits@D@std@@V?$allocator@D@2@@std@@PBVOptions@2@@Z 1002f64c     osgDB:osg63-osgDB.dll
 0002:00000650       \177osg63-osgDB_NULL_THUNK_DATA 1002f650     osgDB:osg63-osgDB.dll
 0002:00000654       __imp_??1Optimizer@osgUtil@@UAE@XZ 1002f654     osgUtil:osg63-osgUtil.dll
 0002:00000658       __imp_?setMaximumError@Simplifier@osgUtil@@QAEXM@Z 1002f658     osgUtil:osg63-osgUtil.dll
 0002:0000065c       __imp_?setSampleRatio@Simplifier@osgUtil@@QAEXM@Z 1002f65c     osgUtil:osg63-osgUtil.dll
 0002:00000660       __imp_?optimize@Optimizer@osgUtil@@QAEXPAVNode@osg@@@Z 1002f660     osgUtil:osg63-osgUtil.dll
 0002:00000664       __imp_??0Simplifier@osgUtil@@QAE@NNN@Z 1002f664     osgUtil:osg63-osgUtil.dll
 0002:00000668       __imp_?stripify@TriStripVisitor@osgUtil@@QAEXXZ 1002f668     osgUtil:osg63-osgUtil.dll
 0002:0000066c       __imp_?setGenerateFourPointPrimitivesQuads@TriStripVisitor@osgUtil@@QAEX_N@Z 1002f66c     osgUtil:osg63-osgUtil.dll
 0002:00000670       __imp_?setMinStripSize@TriStripVisitor@osgUtil@@QAEXI@Z 1002f670     osgUtil:osg63-osgUtil.dll
 0002:00000674       __imp_??0TriStripVisitor@osgUtil@@QAE@PAVOptimizer@1@@Z 1002f674     osgUtil:osg63-osgUtil.dll
 0002:00000678       __imp_?setPermissibleOptimizationsForObject@Optimizer@osgUtil@@QAEXPBVObject@osg@@I@Z 1002f678     osgUtil:osg63-osgUtil.dll
 0002:0000067c       __imp_??0Optimizer@osgUtil@@QAE@XZ 1002f67c     osgUtil:osg63-osgUtil.dll
 0002:00000680       __imp_?optimize@Optimizer@osgUtil@@UAEXPAVNode@osg@@I@Z 1002f680     osgUtil:osg63-osgUtil.dll
 0002:00000684       __imp_?simplify@Simplifier@osgUtil@@QAEXAAVGeometry@osg@@@Z 1002f684     osgUtil:osg63-osgUtil.dll
 0002:00000688       __imp_??_DTriStripVisitor@osgUtil@@QAEXXZ 1002f688     osgUtil:osg63-osgUtil.dll
 0002:0000068c       __imp_??_DSimplifier@osgUtil@@QAEXXZ 1002f68c     osgUtil:osg63-osgUtil.dll
 0002:00000690       __imp_?setDoTriStrip@Simplifier@osgUtil@@QAEX_N@Z 1002f690     osgUtil:osg63-osgUtil.dll
 0002:00000694       \177osg63-osgUtil_NULL_THUNK_DATA 1002f694     osgUtil:osg63-osgUtil.dll
 0002:00000698       __imp_??0Viewer@osgViewer@@QAE@XZ 1002f698     osgViewer:osg63-osgViewer.dll
 0002:0000069c       __imp_??_DViewer@osgViewer@@QAEXXZ 1002f69c     osgViewer:osg63-osgViewer.dll
 0002:000006a0       \177osg63-osgViewer_NULL_THUNK_DATA 1002f6a0     osgViewer:osg63-osgViewer.dll
 0002:000006a4       __imp_??1Mutex@OpenThreads@@UAE@XZ 1002f6a4     OpenThreads:ot12-OpenThreads.dll
 0002:000006a8       __imp_?trylock@Mutex@OpenThreads@@UAEHXZ 1002f6a8     OpenThreads:ot12-OpenThreads.dll
 0002:000006ac       __imp_?unlock@Mutex@OpenThreads@@UAEHXZ 1002f6ac     OpenThreads:ot12-OpenThreads.dll
 0002:000006b0       __imp_?lock@Mutex@OpenThreads@@UAEHXZ 1002f6b0     OpenThreads:ot12-OpenThreads.dll
 0002:000006b4       __imp_??0Mutex@OpenThreads@@QAE@W4MutexType@01@@Z 1002f6b4     OpenThreads:ot12-OpenThreads.dll
 0002:000006b8       \177ot12-OpenThreads_NULL_THUNK_DATA 1002f6b8     OpenThreads:ot12-OpenThreads.dll
 0002:000006eb       ?_Value@?$_Is_swap_move@U_Swap_move_tag@std@@@std@@2_NB 1002f6eb     ConverterDLL.obj
 0002:000006ec       ?collate@?$_Locbase@H@std@@2HB 1002f6ec     ConverterDLL.obj
 0002:000006f0       ?ctype@?$_Locbase@H@std@@2HB 1002f6f0     ConverterDLL.obj
 0002:000006f4       ?monetary@?$_Locbase@H@std@@2HB 1002f6f4     ConverterDLL.obj
 0002:000006f8       ?numeric@?$_Locbase@H@std@@2HB 1002f6f8     ConverterDLL.obj
 0002:000006fc       ?time@?$_Locbase@H@std@@2HB 1002f6fc     ConverterDLL.obj
 0002:00000700       ?messages@?$_Locbase@H@std@@2HB 1002f700     ConverterDLL.obj
 0002:00000704       ?all@?$_Locbase@H@std@@2HB 1002f704     ConverterDLL.obj
 0002:00000708       ?none@?$_Locbase@H@std@@2HB 1002f708     ConverterDLL.obj
 0002:0000070c       ?skipws@?$_Iosb@H@std@@2W4_Fmtflags@12@B 1002f70c     ConverterDLL.obj
 0002:00000710       ?unitbuf@?$_Iosb@H@std@@2W4_Fmtflags@12@B 1002f710     ConverterDLL.obj
 0002:00000714       ?uppercase@?$_Iosb@H@std@@2W4_Fmtflags@12@B 1002f714     ConverterDLL.obj
 0002:00000718       ?showbase@?$_Iosb@H@std@@2W4_Fmtflags@12@B 1002f718     ConverterDLL.obj
 0002:0000071c       ?showpoint@?$_Iosb@H@std@@2W4_Fmtflags@12@B 1002f71c     ConverterDLL.obj
 0002:00000720       ?showpos@?$_Iosb@H@std@@2W4_Fmtflags@12@B 1002f720     ConverterDLL.obj
 0002:00000724       ?left@?$_Iosb@H@std@@2W4_Fmtflags@12@B 1002f724     ConverterDLL.obj
 0002:00000728       ?right@?$_Iosb@H@std@@2W4_Fmtflags@12@B 1002f728     ConverterDLL.obj
 0002:0000072c       ?internal@?$_Iosb@H@std@@2W4_Fmtflags@12@B 1002f72c     ConverterDLL.obj
 0002:00000730       ?dec@?$_Iosb@H@std@@2W4_Fmtflags@12@B 1002f730     ConverterDLL.obj
 0002:00000734       ?oct@?$_Iosb@H@std@@2W4_Fmtflags@12@B 1002f734     ConverterDLL.obj
 0002:00000738       ?hex@?$_Iosb@H@std@@2W4_Fmtflags@12@B 1002f738     ConverterDLL.obj
 0002:0000073c       ?scientific@?$_Iosb@H@std@@2W4_Fmtflags@12@B 1002f73c     ConverterDLL.obj
 0002:00000740       ?fixed@?$_Iosb@H@std@@2W4_Fmtflags@12@B 1002f740     ConverterDLL.obj
 0002:00000744       ?hexfloat@?$_Iosb@H@std@@2W4_Fmtflags@12@B 1002f744     ConverterDLL.obj
 0002:00000748       ?boolalpha@?$_Iosb@H@std@@2W4_Fmtflags@12@B 1002f748     ConverterDLL.obj
 0002:0000074c       ?_Stdio@?$_Iosb@H@std@@2W4_Fmtflags@12@B 1002f74c     ConverterDLL.obj
 0002:00000750       ?adjustfield@?$_Iosb@H@std@@2W4_Fmtflags@12@B 1002f750     ConverterDLL.obj
 0002:00000754       ?basefield@?$_Iosb@H@std@@2W4_Fmtflags@12@B 1002f754     ConverterDLL.obj
 0002:00000758       ?floatfield@?$_Iosb@H@std@@2W4_Fmtflags@12@B 1002f758     ConverterDLL.obj
 0002:0000075c       ?goodbit@?$_Iosb@H@std@@2W4_Iostate@12@B 1002f75c     ConverterDLL.obj
 0002:00000760       ?eofbit@?$_Iosb@H@std@@2W4_Iostate@12@B 1002f760     ConverterDLL.obj
 0002:00000764       ?failbit@?$_Iosb@H@std@@2W4_Iostate@12@B 1002f764     ConverterDLL.obj
 0002:00000768       ?badbit@?$_Iosb@H@std@@2W4_Iostate@12@B 1002f768     ConverterDLL.obj
 0002:0000076c       ?_Hardfail@?$_Iosb@H@std@@2W4_Iostate@12@B 1002f76c     ConverterDLL.obj
 0002:00000770       ?in@?$_Iosb@H@std@@2W4_Openmode@12@B 1002f770     ConverterDLL.obj
 0002:00000774       ?out@?$_Iosb@H@std@@2W4_Openmode@12@B 1002f774     ConverterDLL.obj
 0002:00000778       ?ate@?$_Iosb@H@std@@2W4_Openmode@12@B 1002f778     ConverterDLL.obj
 0002:0000077c       ?app@?$_Iosb@H@std@@2W4_Openmode@12@B 1002f77c     ConverterDLL.obj
 0002:00000780       ?trunc@?$_Iosb@H@std@@2W4_Openmode@12@B 1002f780     ConverterDLL.obj
 0002:00000784       ?_Nocreate@?$_Iosb@H@std@@2W4_Openmode@12@B 1002f784     ConverterDLL.obj
 0002:00000788       ?_Noreplace@?$_Iosb@H@std@@2W4_Openmode@12@B 1002f788     ConverterDLL.obj
 0002:0000078c       ?binary@?$_Iosb@H@std@@2W4_Openmode@12@B 1002f78c     ConverterDLL.obj
 0002:00000790       ?beg@?$_Iosb@H@std@@2W4_Seekdir@12@B 1002f790     ConverterDLL.obj
 0002:00000794       ?cur@?$_Iosb@H@std@@2W4_Seekdir@12@B 1002f794     ConverterDLL.obj
 0002:00000798       ?end@?$_Iosb@H@std@@2W4_Seekdir@12@B 1002f798     ConverterDLL.obj
 0002:00000f3e       ?value@?$integral_constant@_N$0A@@tr1@std@@2_NB 1002ff3e     main.obj
 0002:00000f3f       ?value@?$integral_constant@_N$00@tr1@std@@2_NB 1002ff3f     main.obj
 0002:00000f40       ?_VBITS@?$vector@_NV?$allocator@_N@std@@@std@@2HB 1002ff40     main.obj
 0002:00000f44       ?_EEM_DS@?$deque@V?$basic_string@DU?$char_traits@D@std@@V?$allocator@D@2@@std@@V?$allocator@V?$basic_string@DU?$char_traits@D@std@@V?$allocator@D@2@@std@@@2@@std@@2HB 1002ff44     main.obj
 0002:00000f48       ?_Value@?$_Is_swap_move@U_Undefined_move_tag@std@@@std@@2_NB 1002ff48     main.obj
 0002:00000f50       ??_7ReentrantMutex@OpenThreads@@6B@ 1002ff50     main.obj
 0002:00000f64       ??_7FixNamesVisitor@@6BReferenced@osg@@@ 1002ff64     main.obj
 0002:00000f74       ??_7FixNamesVisitor@@6BNodeVisitor@osg@@@ 1002ff74     main.obj
 0002:00000fec       ??_8FixNamesVisitor@@7B@   1002ffec     main.obj
 0002:00000ff8       ??_STriStripVisitor@osgUtil@@6BReferenced@osg@@@ 1002fff8     main.obj
 0002:00001004       ??_SOptimizer@osgUtil@@6B@ 10030004     main.obj
 0002:00001010       ??_7Triangulator@@6BReferenced@osg@@@ 10030010     main.obj
 0002:0000101c       ??_7Triangulator@@6BNodeVisitor@osg@@@ 1003001c     main.obj
 0002:00001094       ??_8Triangulator@@7B@      10030094     main.obj
 0002:000010a0       ??_SDrawElementsUInt@osg@@6B?$MixinVector@I@1@@ 100300a0     main.obj
 0002:000010ac       ??_SDrawElementsUInt@osg@@6BDrawElements@1@@ 100300ac     main.obj
 0002:0000111c       ??_SOptions@osgDB@@6B@     1003011c     main.obj
 0002:00001148       ??_S?$basic_stringstream@DU?$char_traits@D@std@@V?$allocator@D@2@@std@@6B@ 10030148     main.obj
 0002:0000114c       __real@3f800000            1003014c     main.obj
 0002:00001150       __real@3ff0000000000000    10030150     main.obj
 0002:00001158       __real@47efffffe0000000    10030158     main.obj
 0002:00001160       __real@0000000000000000    10030160     main.obj
 0002:0000116c       ??_7GatherGeometryVisitor@@6BReferenced@osg@@@ 1003016c     main.obj
 0002:0000117c       ??_7GatherGeometryVisitor@@6BNodeVisitor@osg@@@ 1003017c     main.obj
 0002:000011f4       ??_8GatherGeometryVisitor@@7B@ 100301f4     main.obj
 0002:00001200       ??_7CountVertsVisitor@@6BReferenced@osg@@@ 10030200     main.obj
 0002:0000120c       ??_7CountVertsVisitor@@6BNodeVisitor@osg@@@ 1003020c     main.obj
 0002:00001284       ??_8CountVertsVisitor@@7B@ 10030284     main.obj
 0002:00001290       ??_7PrimitiveWriter@@6B@   10030290     main.obj
 0002:000012cc       ??_7PrimitiveIndexFunctor@osg@@6B@ 100302cc     main.obj
 0002:0000130c       ??_SGroup@osg@@6B@         1003030c     main.obj
 0002:00001384       ??_7ConditionPathsCallback@@6BReferenced@osg@@@ 10030384     main.obj
 0002:00001390       ??_7ConditionPathsCallback@@6BReadFileCallback@osgDB@@@ 10030390     main.obj
 0002:000013a8       ??_8ConditionPathsCallback@@7B@ 100303a8     main.obj
 0002:000013b0       ??_C@_00CNPNBAHC@?$AA@     100303b0     main.obj
 0002:000013b4       __real@00000000            100303b4     main.obj
 0002:000013b8       ??_C@_01IHBHIGKO@?0?$AA@   100303b8     main.obj
 0002:000013bc       ??_C@_01KMDKNFGN@?1?$AA@   100303bc     main.obj
 0002:000013c0       ??_C@_01KICIPPFI@?2?$AA@   100303c0     main.obj
 0002:000013cc       ??_SImage@osg@@6B@         100303cc     main.obj
 0002:00001434       ??_7ImageCallback@@6BReferenced@osg@@@ 10030434     main.obj
 0002:00001440       ??_7ImageCallback@@6BReadFileCallback@osgDB@@@ 10030440     main.obj
 0002:00001458       ??_8ImageCallback@@7B@     10030458     main.obj
 0002:00001464       ??_7ManageMemoryCallback@@6BReferenced@osg@@@ 10030464     main.obj
 0002:00001470       ??_7ManageMemoryCallback@@6BReadFileCallback@osgDB@@@ 10030470     main.obj
 0002:00001488       ??_8ManageMemoryCallback@@7B@ 10030488     main.obj
 0002:00001494       ??_STraits@GraphicsContext@osg@@6B@ 10030494     main.obj
 0002:0000149c       ??_C@_03NNHBJLDF@png?$AA@  1003049c     main.obj
 0002:000014a0       ??_C@_03CAKEDOOO@bmp?$AA@  100304a0     main.obj
 0002:000014a4       ??_C@_03MOLNDNH@gif?$AA@   100304a4     main.obj
 0002:000014a8       ??_C@_03CBDDAJHO@dds?$AA@  100304a8     main.obj
 0002:000014ac       ??_C@_03LJIJAGL@tga?$AA@   100304ac     main.obj
 0002:000014b0       ??_C@_03PEGNKCLE@jpg?$AA@  100304b0     main.obj
 0002:000014b4       ??_C@_0O@FKGLHOCK@ScaleTextures?$AA@ 100304b4     main.obj
 0002:000014c4       ??_C@_0BA@FMKGCGCH@ReplaceTextures?$AA@ 100304c4     main.obj
 0002:000014d4       ??_C@_06JAFAMIEA@UpAxis?$AA@ 100304d4     main.obj
 0002:000014dc       ??_C@_0BC@ENEDPOH@MetadataGathering?$AA@ 100304dc     main.obj
 0002:000014f0       ??_C@_0M@LLICDKHG@AddMetadata?$AA@ 100304f0     main.obj
 0002:000014fc       ??_C@_0O@JALBHOKL@ApplyMetadata?$AA@ 100304fc     main.obj
 0002:0000150c       ??_C@_09IODPIFBP@UnitScale?$AA@ 1003050c     main.obj
 0002:00001518       ??_C@_0BA@PEIFJHIM@ConvertTextures?$AA@ 10030518     main.obj
 0002:00001528       ??_C@_0P@JPLIDIDA@ReducePolygons?$AA@ 10030528     main.obj
 0002:00001538       ??_C@_03MKGIAGIK@flt?$AA@  10030538     main.obj
 0002:0000153c       ??_C@_03LJAEFNNE@max?$AA@  1003053c     main.obj
 0002:00001540       ??_C@_03MMIMHCKG@skp?$AA@  10030540     main.obj
 0002:00001544       ??_C@_03GMEDGEIM@fbx?$AA@  10030544     main.obj
 0002:00001548       ??_C@_03GJLPFLNF@obj?$AA@  10030548     main.obj
 0002:0000154c       ??_C@_03HHOJDOGF@3ds?$AA@  1003054c     main.obj
 0002:00001550       ??_C@_03DLGAHOEC@dae?$AA@  10030550     main.obj
 0002:00001558       ??_7FindTextureReferencePairs@@6BReferenced@osg@@@ 10030558     main.obj
 0002:00001564       ??_7FindTextureReferencePairs@@6BNodeVisitor@osg@@@ 10030564     main.obj
 0002:000015dc       ??_8FindTextureReferencePairs@@7B@ 100305dc     main.obj
 0002:000015e4       ??_C@_04CGFJFPFD@none?$AA@ 100305e4     main.obj
 0002:000015ec       ??_C@_0BD@OLBABOEK@vector?$DMT?$DO?5too?5long?$AA@ 100305ec     main.obj
 0002:00001604       ??_7length_error@std@@6B@  10030604     main.obj
 0002:00001610       ??_7logic_error@std@@6B@   10030610     main.obj
 0002:00001618       ??_C@_0BM@PAPJHAGI@invalid?5map?1set?$DMT?$DO?5iterator?$AA@ 10030618     main.obj
 0002:00001638       ??_7out_of_range@std@@6B@  10030638     main.obj
 0002:00001640       ??_C@_0BE@JONHPENG@map?1set?$DMT?$DO?5too?5long?$AA@ 10030640     main.obj
 0002:00001654       ??_C@_0BC@KBDMBKEH@deque?$DMT?$DO?5too?5long?$AA@ 10030654     main.obj
 0002:00001668       ??_C@_0BB@MOGOBHAF@list?$DMT?$DO?5too?5long?$AA@ 10030668     main.obj
 0002:00001680       ??_SDrawElementsUShort@osg@@6B?$MixinVector@G@1@@ 10030680     main.obj
 0002:0000168c       ??_SDrawElementsUShort@osg@@6BDrawElements@1@@ 1003068c     main.obj
 0002:000016fc       ??_SDrawElementsUByte@osg@@6B?$MixinVector@E@1@@ 100306fc     main.obj
 0002:00001704       ??_SDrawElementsUByte@osg@@6BDrawElements@1@@ 10030704     main.obj
 0002:00001774       ??_7bad_alloc@std@@6B@     10030774     main.obj
 0002:00002a90       ?inflate_copyright@@3QBDB  10031a90     unzip.obj
 0002:00004574       ??_C@_0P@GHFPNOJB@bad?5allocation?$AA@ 10033574     msvcprt:newaop_s.obj
 0002:00004588       ??_7type_info@@6B@         10033588     MSVCRT:ti_inst.obj
 0002:00004598       __load_config_used         10033598     MSVCRT:loadcfg.obj
 0002:0000463c       ??_R4ReentrantMutex@OpenThreads@@6B@ 1003363c     main.obj
 0002:00004650       ??_R3ReentrantMutex@OpenThreads@@8 10033650     main.obj
 0002:00004660       ??_R2ReentrantMutex@OpenThreads@@8 10033660     main.obj
 0002:0000466c       ??_R1A@?0A@EA@ReentrantMutex@OpenThreads@@8 1003366c     main.obj
 0002:00004688       ??_R1A@?0A@EA@Mutex@OpenThreads@@8 10033688     main.obj
 0002:000046a4       ??_R3Mutex@OpenThreads@@8  100336a4     main.obj
 0002:000046b4       ??_R2Mutex@OpenThreads@@8  100336b4     main.obj
 0002:000046bc       ??_R4FixNamesVisitor@@6BNodeVisitor@osg@@@ 100336bc     main.obj
 0002:000046d0       ??_R3FixNamesVisitor@@8    100336d0     main.obj
 0002:000046e0       ??_R2FixNamesVisitor@@8    100336e0     main.obj
 0002:000046f0       ??_R1A@?0A@EA@FixNamesVisitor@@8 100336f0     main.obj
 0002:0000470c       ??_R1A@?0A@EA@NodeVisitor@osg@@8 1003370c     main.obj
 0002:00004728       ??_R3NodeVisitor@osg@@8    10033728     main.obj
 0002:00004738       ??_R2NodeVisitor@osg@@8    10033738     main.obj
 0002:00004744       ??_R1A@33FA@Referenced@osg@@8 10033744     main.obj
 0002:00004760       ??_R3Referenced@osg@@8     10033760     main.obj
 0002:00004770       ??_R2Referenced@osg@@8     10033770     main.obj
 0002:00004778       ??_R1A@?0A@EA@Referenced@osg@@8 10033778     main.obj
 0002:00004794       ??_R4FixNamesVisitor@@6BReferenced@osg@@@ 10033794     main.obj
 0002:000047a8       ??_R4Optimizer@osgUtil@@6B@ 100337a8     main.obj
 0002:000047bc       ??_R3Optimizer@osgUtil@@8  100337bc     main.obj
 0002:000047cc       ??_R2Optimizer@osgUtil@@8  100337cc     main.obj
 0002:000047d4       ??_R1A@?0A@EA@Optimizer@osgUtil@@8 100337d4     main.obj
 0002:000047f0       ??_R4TriStripVisitor@osgUtil@@6BReferenced@osg@@@ 100337f0     main.obj
 0002:00004804       ??_R3TriStripVisitor@osgUtil@@8 10033804     main.obj
 0002:00004814       ??_R2TriStripVisitor@osgUtil@@8 10033814     main.obj
 0002:00004828       ??_R1A@?0A@EA@TriStripVisitor@osgUtil@@8 10033828     main.obj
 0002:00004844       ??_R1A@?0A@EA@BaseOptimizerVisitor@osgUtil@@8 10033844     main.obj
 0002:00004860       ??_R3BaseOptimizerVisitor@osgUtil@@8 10033860     main.obj
 0002:00004870       ??_R2BaseOptimizerVisitor@osgUtil@@8 10033870     main.obj
 0002:00004880       ??_R4Triangulator@@6BNodeVisitor@osg@@@ 10033880     main.obj
 0002:00004894       ??_R3Triangulator@@8       10033894     main.obj
 0002:000048a4       ??_R2Triangulator@@8       100338a4     main.obj
 0002:000048b4       ??_R1A@?0A@EA@Triangulator@@8 100338b4     main.obj
 0002:000048d0       ??_R4Triangulator@@6BReferenced@osg@@@ 100338d0     main.obj
 0002:000048e4       ??_R4DrawElementsUInt@osg@@6BDrawElements@1@@ 100338e4     main.obj
 0002:000048f8       ??_R3DrawElementsUInt@osg@@8 100338f8     main.obj
 0002:00004908       ??_R2DrawElementsUInt@osg@@8 10033908     main.obj
 0002:00004928       ??_R1A@?0A@EA@DrawElementsUInt@osg@@8 10033928     main.obj
 0002:00004944       ??_R1A@?0A@EA@DrawElements@osg@@8 10033944     main.obj
 0002:00004960       ??_R3DrawElements@osg@@8   10033960     main.obj
 0002:00004970       ??_R2DrawElements@osg@@8   10033970     main.obj
 0002:00004988       ??_R1A@?0A@EA@PrimitiveSet@osg@@8 10033988     main.obj
 0002:000049a4       ??_R3PrimitiveSet@osg@@8   100339a4     main.obj
 0002:000049b4       ??_R2PrimitiveSet@osg@@8   100339b4     main.obj
 0002:000049c8       ??_R1A@?0A@EA@BufferData@osg@@8 100339c8     main.obj
 0002:000049e4       ??_R3BufferData@osg@@8     100339e4     main.obj
 0002:000049f4       ??_R2BufferData@osg@@8     100339f4     main.obj
 0002:00004a04       ??_R1A@?0A@EA@Object@osg@@8 10033a04     main.obj
 0002:00004a20       ??_R3Object@osg@@8         10033a20     main.obj
 0002:00004a30       ??_R2Object@osg@@8         10033a30     main.obj
 0002:00004a3c       ??_R1EM@?0A@EA@?$MixinVector@I@osg@@8 10033a3c     main.obj
 0002:00004a58       ??_R3?$MixinVector@I@osg@@8 10033a58     main.obj
 0002:00004a68       ??_R2?$MixinVector@I@osg@@8 10033a68     main.obj
 0002:00004a70       ??_R1A@?0A@EA@?$MixinVector@I@osg@@8 10033a70     main.obj
 0002:00004a8c       ??_R4DrawElementsUInt@osg@@6B?$MixinVector@I@1@@ 10033a8c     main.obj
 0002:00004aa0       ??_R4?$basic_stringstream@DU?$char_traits@D@std@@V?$allocator@D@2@@std@@6B@ 10033aa0     main.obj
 0002:00004ab4       ??_R3?$basic_stringstream@DU?$char_traits@D@std@@V?$allocator@D@2@@std@@8 10033ab4     main.obj
 0002:00004ac4       ??_R2?$basic_stringstream@DU?$char_traits@D@std@@V?$allocator@D@2@@std@@8 10033ac4     main.obj
 0002:00004af0       ??_R1A@?0A@EA@?$basic_stringstream@DU?$char_traits@D@std@@V?$allocator@D@2@@std@@8 10033af0     main.obj
 0002:00004b0c       ??_R1A@?0A@EA@?$basic_iostream@DU?$char_traits@D@std@@@std@@8 10033b0c     main.obj
 0002:00004b28       ??_R3?$basic_iostream@DU?$char_traits@D@std@@@std@@8 10033b28     main.obj
 0002:00004b38       ??_R2?$basic_iostream@DU?$char_traits@D@std@@@std@@8 10033b38     main.obj
 0002:00004b60       ??_R1A@?0A@EA@?$basic_istream@DU?$char_traits@D@std@@@std@@8 10033b60     main.obj
 0002:00004b7c       ??_R3?$basic_istream@DU?$char_traits@D@std@@@std@@8 10033b7c     main.obj
 0002:00004b8c       ??_R2?$basic_istream@DU?$char_traits@D@std@@@std@@8 10033b8c     main.obj
 0002:00004ba0       ??_R1A@A@3FA@?$basic_ios@DU?$char_traits@D@std@@@std@@8 10033ba0     main.obj
 0002:00004bbc       ??_R3?$basic_ios@DU?$char_traits@D@std@@@std@@8 10033bbc     main.obj
 0002:00004bcc       ??_R2?$basic_ios@DU?$char_traits@D@std@@@std@@8 10033bcc     main.obj
 0002:00004bdc       ??_R1A@?0A@EA@?$basic_ios@DU?$char_traits@D@std@@@std@@8 10033bdc     main.obj
 0002:00004bf8       ??_R1A@?0A@EA@ios_base@std@@8 10033bf8     main.obj
 0002:00004c14       ??_R3ios_base@std@@8       10033c14     main.obj
 0002:00004c24       ??_R2ios_base@std@@8       10033c24     main.obj
 0002:00004c30       ??_R13?0A@EA@?$_Iosb@H@std@@8 10033c30     main.obj
 0002:00004c4c       ??_R3?$_Iosb@H@std@@8      10033c4c     main.obj
 0002:00004c5c       ??_R2?$_Iosb@H@std@@8      10033c5c     main.obj
 0002:00004c64       ??_R1A@?0A@EA@?$_Iosb@H@std@@8 10033c64     main.obj
 0002:00004c80       ??_R1A@A@3EA@ios_base@std@@8 10033c80     main.obj
 0002:00004c9c       ??_R13A@3EA@?$_Iosb@H@std@@8 10033c9c     main.obj
 0002:00004cb8       ??_R17?0A@EA@?$basic_ostream@DU?$char_traits@D@std@@@std@@8 10033cb8     main.obj
 0002:00004cd4       ??_R3?$basic_ostream@DU?$char_traits@D@std@@@std@@8 10033cd4     main.obj
 0002:00004ce4       ??_R2?$basic_ostream@DU?$char_traits@D@std@@@std@@8 10033ce4     main.obj
 0002:00004cf8       ??_R1A@?0A@EA@?$basic_ostream@DU?$char_traits@D@std@@@std@@8 10033cf8     main.obj
 0002:00004d14       ??_R4Options@osgDB@@6B@    10033d14     main.obj
 0002:00004d28       ??_R3Options@osgDB@@8      10033d28     main.obj
 0002:00004d38       ??_R2Options@osgDB@@8      10033d38     main.obj
 0002:00004d48       ??_R1A@?0A@EA@Options@osgDB@@8 10033d48     main.obj
 0002:00004d64       ??_R4GatherGeometryVisitor@@6BNodeVisitor@osg@@@ 10033d64     main.obj
 0002:00004d78       ??_R3GatherGeometryVisitor@@8 10033d78     main.obj
 0002:00004d88       ??_R2GatherGeometryVisitor@@8 10033d88     main.obj
 0002:00004d98       ??_R1A@?0A@EA@GatherGeometryVisitor@@8 10033d98     main.obj
 0002:00004db4       ??_R4GatherGeometryVisitor@@6BReferenced@osg@@@ 10033db4     main.obj
 0002:00004dc8       ??_R4CountVertsVisitor@@6BNodeVisitor@osg@@@ 10033dc8     main.obj
 0002:00004ddc       ??_R3CountVertsVisitor@@8  10033ddc     main.obj
 0002:00004dec       ??_R2CountVertsVisitor@@8  10033dec     main.obj
 0002:00004dfc       ??_R1A@?0A@EA@CountVertsVisitor@@8 10033dfc     main.obj
 0002:00004e18       ??_R4CountVertsVisitor@@6BReferenced@osg@@@ 10033e18     main.obj
 0002:00004e2c       ??_R4PrimitiveWriter@@6B@  10033e2c     main.obj
 0002:00004e40       ??_R3PrimitiveWriter@@8    10033e40     main.obj
 0002:00004e50       ??_R2PrimitiveWriter@@8    10033e50     main.obj
 0002:00004e5c       ??_R1A@?0A@EA@PrimitiveWriter@@8 10033e5c     main.obj
 0002:00004e78       ??_R1A@?0A@EA@PrimitiveIndexFunctor@osg@@8 10033e78     main.obj
 0002:00004e94       ??_R3PrimitiveIndexFunctor@osg@@8 10033e94     main.obj
 0002:00004ea4       ??_R2PrimitiveIndexFunctor@osg@@8 10033ea4     main.obj
 0002:00004eac       ??_R4PrimitiveIndexFunctor@osg@@6B@ 10033eac     main.obj
 0002:00004ec0       ??_R4Group@osg@@6B@        10033ec0     main.obj
 0002:00004ed4       ??_R3Group@osg@@8          10033ed4     main.obj
 0002:00004ee4       ??_R2Group@osg@@8          10033ee4     main.obj
 0002:00004ef8       ??_R1A@?0A@EA@Group@osg@@8 10033ef8     main.obj
 0002:00004f14       ??_R1A@?0A@EA@Node@osg@@8  10033f14     main.obj
 0002:00004f30       ??_R3Node@osg@@8           10033f30     main.obj
 0002:00004f40       ??_R2Node@osg@@8           10033f40     main.obj
 0002:00004f50       ??_R4ConditionPathsCallback@@6BReadFileCallback@osgDB@@@ 10033f50     main.obj
 0002:00004f64       ??_R3ConditionPathsCallback@@8 10033f64     main.obj
 0002:00004f74       ??_R2ConditionPathsCallback@@8 10033f74     main.obj
 0002:00004f8c       ??_R1A@?0A@EA@ConditionPathsCallback@@8 10033f8c     main.obj
 0002:00004fa8       ??_R1A@?0A@EA@ImageCallback@@8 10033fa8     main.obj
 0002:00004fc4       ??_R3ImageCallback@@8      10033fc4     main.obj
 0002:00004fd4       ??_R2ImageCallback@@8      10033fd4     main.obj
 0002:00004fe8       ??_R1A@?0A@EA@ManageMemoryCallback@@8 10033fe8     main.obj
 0002:00005004       ??_R3ManageMemoryCallback@@8 10034004     main.obj
 0002:00005014       ??_R2ManageMemoryCallback@@8 10034014     main.obj
 0002:00005024       ??_R1A@?0A@EA@ReadFileCallback@osgDB@@8 10034024     main.obj
 0002:00005040       ??_R3ReadFileCallback@osgDB@@8 10034040     main.obj
 0002:00005050       ??_R2ReadFileCallback@osgDB@@8 10034050     main.obj
 0002:0000505c       ??_R4ConditionPathsCallback@@6BReferenced@osg@@@ 1003405c     main.obj
 0002:00005070       ??_R4Image@osg@@6B@        10034070     main.obj
 0002:00005084       ??_R3Image@osg@@8          10034084     main.obj
 0002:00005094       ??_R2Image@osg@@8          10034094     main.obj
 0002:000050a8       ??_R1A@?0A@EA@Image@osg@@8 100340a8     main.obj
 0002:000050c4       ??_R4ImageCallback@@6BReadFileCallback@osgDB@@@ 100340c4     main.obj
 0002:000050d8       ??_R4ImageCallback@@6BReferenced@osg@@@ 100340d8     main.obj
 0002:000050ec       ??_R4ManageMemoryCallback@@6BReadFileCallback@osgDB@@@ 100340ec     main.obj
 0002:00005100       ??_R4ManageMemoryCallback@@6BReferenced@osg@@@ 10034100     main.obj
 0002:00005114       ??_R4Traits@GraphicsContext@osg@@6B@ 10034114     main.obj
 0002:00005128       ??_R3Traits@GraphicsContext@osg@@8 10034128     main.obj
 0002:00005138       ??_R2Traits@GraphicsContext@osg@@8 10034138     main.obj
 0002:00005148       ??_R1A@?0A@EA@Traits@GraphicsContext@osg@@8 10034148     main.obj
 0002:00005164       ??_R1M@?0A@EA@ScreenIdentifier@GraphicsContext@osg@@8 10034164     main.obj
 0002:00005180       ??_R3ScreenIdentifier@GraphicsContext@osg@@8 10034180     main.obj
 0002:00005190       ??_R2ScreenIdentifier@GraphicsContext@osg@@8 10034190     main.obj
 0002:00005198       ??_R1A@?0A@EA@ScreenIdentifier@GraphicsContext@osg@@8 10034198     main.obj
 0002:000051b4       ??_R4FindTextureReferencePairs@@6BNodeVisitor@osg@@@ 100341b4     main.obj
 0002:000051c8       ??_R3FindTextureReferencePairs@@8 100341c8     main.obj
 0002:000051d8       ??_R2FindTextureReferencePairs@@8 100341d8     main.obj
 0002:000051e8       ??_R1A@?0A@EA@FindTextureReferencePairs@@8 100341e8     main.obj
 0002:00005204       ??_R4FindTextureReferencePairs@@6BReferenced@osg@@@ 10034204     main.obj
 0002:00005218       ??_R4length_error@std@@6B@ 10034218     main.obj
 0002:0000522c       ??_R3length_error@std@@8   1003422c     main.obj
 0002:0000523c       ??_R2length_error@std@@8   1003423c     main.obj
 0002:0000524c       ??_R1A@?0A@EA@length_error@std@@8 1003424c     main.obj
 0002:00005268       ??_R1A@?0A@EA@logic_error@std@@8 10034268     main.obj
 0002:00005284       ??_R3logic_error@std@@8    10034284     main.obj
 0002:00005294       ??_R2logic_error@std@@8    10034294     main.obj
 0002:000052a0       ??_R1A@?0A@EA@exception@std@@8 100342a0     main.obj
 0002:000052bc       ??_R3exception@std@@8      100342bc     main.obj
 0002:000052cc       ??_R2exception@std@@8      100342cc     main.obj
 0002:000052d4       ??_R4logic_error@std@@6B@  100342d4     main.obj
 0002:000052e8       ??_R4out_of_range@std@@6B@ 100342e8     main.obj
 0002:000052fc       ??_R3out_of_range@std@@8   100342fc     main.obj
 0002:0000530c       ??_R2out_of_range@std@@8   1003430c     main.obj
 0002:0000531c       ??_R1A@?0A@EA@out_of_range@std@@8 1003431c     main.obj
 0002:00005338       ??_R4DrawElementsUShort@osg@@6BDrawElements@1@@ 10034338     main.obj
 0002:0000534c       ??_R3DrawElementsUShort@osg@@8 1003434c     main.obj
 0002:0000535c       ??_R2DrawElementsUShort@osg@@8 1003435c     main.obj
 0002:0000537c       ??_R1A@?0A@EA@DrawElementsUShort@osg@@8 1003437c     main.obj
 0002:00005398       ??_R1EM@?0A@EA@?$MixinVector@G@osg@@8 10034398     main.obj
 0002:000053b4       ??_R3?$MixinVector@G@osg@@8 100343b4     main.obj
 0002:000053c4       ??_R2?$MixinVector@G@osg@@8 100343c4     main.obj
 0002:000053cc       ??_R1A@?0A@EA@?$MixinVector@G@osg@@8 100343cc     main.obj
 0002:000053e8       ??_R4DrawElementsUShort@osg@@6B?$MixinVector@G@1@@ 100343e8     main.obj
 0002:000053fc       ??_R4DrawElementsUByte@osg@@6BDrawElements@1@@ 100343fc     main.obj
 0002:00005410       ??_R3DrawElementsUByte@osg@@8 10034410     main.obj
 0002:00005420       ??_R2DrawElementsUByte@osg@@8 10034420     main.obj
 0002:00005440       ??_R1A@?0A@EA@DrawElementsUByte@osg@@8 10034440     main.obj
 0002:0000545c       ??_R1EM@?0A@EA@?$MixinVector@E@osg@@8 1003445c     main.obj
 0002:00005478       ??_R3?$MixinVector@E@osg@@8 10034478     main.obj
 0002:00005488       ??_R2?$MixinVector@E@osg@@8 10034488     main.obj
 0002:00005490       ??_R1A@?0A@EA@?$MixinVector@E@osg@@8 10034490     main.obj
 0002:000054ac       ??_R4DrawElementsUByte@osg@@6B?$MixinVector@E@1@@ 100344ac     main.obj
 0002:000054c0       ??_R4bad_alloc@std@@6B@    100344c0     main.obj
 0002:000054d4       ??_R3bad_alloc@std@@8      100344d4     main.obj
 0002:000054e4       ??_R2bad_alloc@std@@8      100344e4     main.obj
 0002:000054f0       ??_R1A@?0A@EA@bad_alloc@std@@8 100344f0     main.obj
 0002:0000550c       ??_R4type_info@@6B@        1003450c     MSVCRT:ti_inst.obj
 0002:00005520       ??_R3type_info@@8          10034520     MSVCRT:ti_inst.obj
 0002:00005530       ??_R2type_info@@8          10034530     MSVCRT:ti_inst.obj
 0002:00005538       ??_R1A@?0A@EA@type_info@@8 10034538     MSVCRT:ti_inst.obj
 0002:00005560       ___safe_se_handler_table   10034560     <linker-defined>
 0002:00007178       __TI3?AVlength_error@std@@ 10036178     main.obj
 0002:000071b4       __CTA3?AVlength_error@std@@ 100361b4     main.obj
 0002:000071c4       __CT??_R0?AVlength_error@std@@@8??0length_error@std@@QAE@ABV01@@Z40 100361c4     main.obj
 0002:000071e0       __CT??_R0?AVlogic_error@std@@@8??0logic_error@std@@QAE@ABV01@@Z40 100361e0     main.obj
 0002:000071fc       __CT??_R0?AVexception@std@@@8??0exception@std@@QAE@ABV01@@Z12 100361fc     main.obj
 0002:000072a4       __TI3?AVout_of_range@std@@ 100362a4     main.obj
 0002:000072e0       __CTA3?AVout_of_range@std@@ 100362e0     main.obj
 0002:000072f0       __CT??_R0?AVout_of_range@std@@@8??0out_of_range@std@@QAE@ABV01@@Z40 100362f0     main.obj
 0002:00007bb8       __TI2?AVbad_alloc@std@@    10036bb8     main.obj
 0002:00007bc8       __CTA2?AVbad_alloc@std@@   10036bc8     main.obj
 0002:00007bd4       __CT??_R0?AVbad_alloc@std@@@8??0bad_alloc@std@@QAE@ABV01@@Z12 10036bd4     main.obj
 0002:00007eb4       __IMPORT_DESCRIPTOR_osg63-osgDB 10036eb4     osgDB:osg63-osgDB.dll
 0002:00007ec8       __IMPORT_DESCRIPTOR_osg63-osg 10036ec8     osg:osg63-osg.dll
 0002:00007edc       __IMPORT_DESCRIPTOR_ot12-OpenThreads 10036edc     OpenThreads:ot12-OpenThreads.dll
 0002:00007ef0       __IMPORT_DESCRIPTOR_osg63-osgUtil 10036ef0     osgUtil:osg63-osgUtil.dll
 0002:00007f04       __IMPORT_DESCRIPTOR_osg63-osgViewer 10036f04     osgViewer:osg63-osgViewer.dll
 0002:00007f18       __IMPORT_DESCRIPTOR_KERNEL32 10036f18     kernel32:KERNEL32.dll
 0002:00007f2c       __IMPORT_DESCRIPTOR_USER32 10036f2c     user32:USER32.dll
 0002:00007f40       __IMPORT_DESCRIPTOR_MSVCP90 10036f40     msvcprt:MSVCP90.dll
 0002:00007f54       __IMPORT_DESCRIPTOR_MSVCR90 10036f54     MSVCRT:MSVCR90.dll
 0002:00007f68       __NULL_IMPORT_DESCRIPTOR   10036f68     osgDB:osg63-osgDB.dll
 0003:00000008       ??_R0?AVReentrantMutex@OpenThreads@@@8 1003e008     main.obj
 0003:00000034       ??_R0?AVMutex@OpenThreads@@@8 1003e034     main.obj
 0003:00000054       ??_R0?AVFixNamesVisitor@@@8 1003e054     main.obj
 0003:00000074       ??_R0?AVNodeVisitor@osg@@@8 1003e074     main.obj
 0003:00000094       ??_R0?AVReferenced@osg@@@8 1003e094     main.obj
 0003:000000b4       ??_R0?AVOptimizer@osgUtil@@@8 1003e0b4     main.obj
 0003:000000d4       ??_R0?AVTriStripVisitor@osgUtil@@@8 1003e0d4     main.obj
 0003:000000fc       ??_R0?AVBaseOptimizerVisitor@osgUtil@@@8 1003e0fc     main.obj
 0003:00000128       ??_R0?AVTriangulator@@@8   1003e128     main.obj
 0003:00000144       ??_R0?AVDrawable@osg@@@8   1003e144     main.obj
 0003:00000160       ??_R0?AVGeometry@osg@@@8   1003e160     main.obj
 0003:0000017c       ??_R0?AVDrawElementsUInt@osg@@@8 1003e17c     main.obj
 0003:000001a0       ??_R0?AVDrawElements@osg@@@8 1003e1a0     main.obj
 0003:000001c0       ??_R0?AVPrimitiveSet@osg@@@8 1003e1c0     main.obj
 0003:000001e0       ??_R0?AVBufferData@osg@@@8 1003e1e0     main.obj
 0003:00000200       ??_R0?AVObject@osg@@@8     1003e200     main.obj
 0003:0000021c       ??_R0?AV?$MixinVector@I@osg@@@8 1003e21c     main.obj
 0003:00000240       ??_R0?AV?$basic_stringstream@DU?$char_traits@D@std@@V?$allocator@D@2@@std@@@8 1003e240     main.obj
 0003:00000290       ??_R0?AV?$basic_iostream@DU?$char_traits@D@std@@@std@@@8 1003e290     main.obj
 0003:000002cc       ??_R0?AV?$basic_istream@DU?$char_traits@D@std@@@std@@@8 1003e2cc     main.obj
 0003:00000308       ??_R0?AV?$basic_ios@DU?$char_traits@D@std@@@std@@@8 1003e308     main.obj
 0003:00000340       ??_R0?AVios_base@std@@@8   1003e340     main.obj
 0003:0000035c       ??_R0?AV?$_Iosb@H@std@@@8  1003e35c     main.obj
 0003:00000378       ??_R0?AV?$basic_ostream@DU?$char_traits@D@std@@@std@@@8 1003e378     main.obj
 0003:000003b4       ??_R0?AVOptions@osgDB@@@8  1003e3b4     main.obj
 0003:000003d0       ??_R0?AVGatherGeometryVisitor@@@8 1003e3d0     main.obj
 0003:000003f4       ??_R0?AVCountVertsVisitor@@@8 1003e3f4     main.obj
 0003:00000414       ??_R0?AVPrimitiveWriter@@@8 1003e414     main.obj
 0003:00000434       ??_R0?AVPrimitiveIndexFunctor@osg@@@8 1003e434     main.obj
 0003:0000045c       ??_R0?AVGroup@osg@@@8      1003e45c     main.obj
 0003:00000474       ??_R0?AVNode@osg@@@8       1003e474     main.obj
 0003:0000048c       ??_R0?AVConditionPathsCallback@@@8 1003e48c     main.obj
 0003:000004b4       ??_R0?AVImageCallback@@@8  1003e4b4     main.obj
 0003:000004d0       ??_R0?AVManageMemoryCallback@@@8 1003e4d0     main.obj
 0003:000004f4       ??_R0?AVReadFileCallback@osgDB@@@8 1003e4f4     main.obj
 0003:0000051c       ??_R0?AVImage@osg@@@8      1003e51c     main.obj
 0003:00000534       ??_R0?AUTraits@GraphicsContext@osg@@@8 1003e534     main.obj
 0003:00000560       ??_R0?AUScreenIdentifier@GraphicsContext@osg@@@8 1003e560     main.obj
 0003:00000594       ??_R0?AVFindTextureReferencePairs@@@8 1003e594     main.obj
 0003:000005bc       ??_R0?AVStateAttribute@osg@@@8 1003e5bc     main.obj
 0003:000005e0       ??_R0?AVTexture@osg@@@8    1003e5e0     main.obj
 0003:000005fc       ??_R0?AVlength_error@std@@@8 1003e5fc     main.obj
 0003:0000061c       ??_R0?AVlogic_error@std@@@8 1003e61c     main.obj
 0003:0000063c       ??_R0?AVexception@std@@@8  1003e63c     main.obj
 0003:00000658       ??_R0?AVout_of_range@std@@@8 1003e658     main.obj
 0003:00000678       ??_R0?AVDrawElementsUShort@osg@@@8 1003e678     main.obj
 0003:000006a0       ??_R0?AV?$MixinVector@G@osg@@@8 1003e6a0     main.obj
 0003:000006c4       ??_R0?AVDrawElementsUByte@osg@@@8 1003e6c4     main.obj
 0003:000006e8       ??_R0?AV?$MixinVector@E@osg@@@8 1003e6e8     main.obj
 0003:0000070c       ??_R0?AVbad_alloc@std@@@8  1003e70c     main.obj
 0003:00000730       ___security_cookie         1003e730     MSVCRT:gs_cookie.obj
 0003:00000734       ___security_cookie_complement 1003e734     MSVCRT:gs_cookie.obj
 0003:00000738       ??_R0?AVtype_info@@@8      1003e738     MSVCRT:ti_inst.obj
 0003:00000754       ?initialized@@3_NA         1003e754     main.obj
 0003:00000764       ?gParserDir@@3V?$basic_string@DU?$char_traits@D@std@@V?$allocator@D@2@@std@@A 1003e764     main.obj
 0003:00000838       ?lasterrorU@@3KA           1003e838     unzip.obj
 0003:0000083c       ?has_seeded@@3_NA          1003e83c     zip.obj
 0003:00000840       ?lasterrorZ@@3KA           1003e840     zip.obj
 0003:00000b6c       ___onexitend               1003eb6c     <common>
 0003:00000b70       ___onexitbegin             1003eb70     <common>

 entry point at        0000:00000000

 Static symbols

 0001:0000d2f4       __catch$??0?$_Tree@V?$_Tmap_traits@V?$basic_string@DU?$char_traits@D@std@@V?$allocator@D@2@@std@@V12@U?$less@V?$basic_string@DU?$char_traits@D@std@@V?$allocator@D@2@@std@@@2@V?$allocator@U?$pair@$$CBV?$basic_string@DU?$char_traits@D@std@@V?$allocator@D@2@@std@@V12@@std@@@2@$0A@@std@@@std@@QAE@ABV01@@Z$0 1000e2f4 f i main.obj
 0001:0000d60b       __catch$??0?$vector@HV?$allocator@H@std@@@std@@QAE@ABV01@@Z$0 1000e60b f i main.obj
 0001:000107bc       __catch$?_Buynode@?$list@PAVGeometry@osg@@V?$allocator@PAVGeometry@osg@@@std@@@std@@IAEPAU_Node@?$_List_nod@PAVGeometry@osg@@V?$allocator@PAVGeometry@osg@@@std@@@2@XZ$0 100117bc f i main.obj
 0001:00010b1c       __catch$?_Buynode@?$list@VReadResult@ReaderWriter@osgDB@@V?$allocator@VReadResult@ReaderWriter@osgDB@@@std@@@std@@IAEPAU_Node@?$_List_nod@VReadResult@ReaderWriter@osgDB@@V?$allocator@VReadResult@ReaderWriter@osgDB@@@std@@@2@XZ$0 10011b1c f i main.obj
 0001:00010eac       __catch$?_Buynode@?$list@V?$basic_string@DU?$char_traits@D@std@@V?$allocator@D@2@@std@@V?$allocator@V?$basic_string@DU?$char_traits@D@std@@V?$allocator@D@2@@std@@@2@@std@@IAEPAU_Node@?$_List_nod@V?$basic_string@DU?$char_traits@D@std@@V?$allocator@D@2@@std@@V?$allocator@V?$basic_string@DU?$char_traits@D@std@@V?$allocator@D@2@@std@@@2@@2@XZ$0 10011eac f i main.obj
 0001:0001116c       __catch$?_Buynode@?$list@PAVZipEntry@@V?$allocator@PAVZipEntry@@@std@@@std@@IAEPAU_Node@?$_List_nod@PAVZipEntry@@V?$allocator@PAVZipEntry@@@std@@@2@XZ$0 1001216c f i main.obj
 0001:0001160c       __catch$?_Buynode@?$list@U?$pair@V?$basic_string@DU?$char_traits@D@std@@V?$allocator@D@2@@std@@V12@@std@@V?$allocator@U?$pair@V?$basic_string@DU?$char_traits@D@std@@V?$allocator@D@2@@std@@V12@@std@@@2@@std@@IAEPAU_Node@?$_List_nod@U?$pair@V?$basic_string@DU?$char_traits@D@std@@V?$allocator@D@2@@std@@V12@@std@@V?$allocator@U?$pair@V?$basic_string@DU?$char_traits@D@std@@V?$allocator@D@2@@std@@V12@@std@@@2@@2@XZ$0 1001260c f i main.obj
 0001:00011bac       __catch$?_Insert_n@?$vector@IV?$allocator@I@std@@@std@@IAEXV?$_Vector_const_iterator@IV?$allocator@I@std@@@2@IABI@Z$0 10012bac f i main.obj
 0001:00011d03       __catch$?_Insert_n@?$vector@IV?$allocator@I@std@@@std@@IAEXV?$_Vector_const_iterator@IV?$allocator@I@std@@@2@IABI@Z$2 10012d03 f i main.obj
 0001:00012e81       __catch$?_Copy@?$_Tree@V?$_Tmap_traits@V?$basic_string@DU?$char_traits@D@std@@V?$allocator@D@2@@std@@V12@U?$less@V?$basic_string@DU?$char_traits@D@std@@V?$allocator@D@2@@std@@@2@V?$allocator@U?$pair@$$CBV?$basic_string@DU?$char_traits@D@std@@V?$allocator@D@2@@std@@V12@@std@@@2@$0A@@std@@@std@@IAEPAU_Node@?$_Tree_nod@V?$_Tmap_traits@V?$basic_string@DU?$char_traits@D@std@@V?$allocator@D@2@@std@@V12@U?$less@V?$basic_string@DU?$char_traits@D@std@@V?$allocator@D@2@@std@@@2@V?$allocator@U?$pair@$$CBV?$basic_string@DU?$char_traits@D@std@@V?$allocator@D@2@@std@@V12@@std@@@2@$0A@@std@@@2@PAU342@0@Z$0 10013e81 f i main.obj
 0001:0001359c       __catch$?_Buynode@?$_Tree@V?$_Tmap_traits@V?$basic_string@DU?$char_traits@D@std@@V?$allocator@D@2@@std@@V12@U?$less@V?$basic_string@DU?$char_traits@D@std@@V?$allocator@D@2@@std@@@2@V?$allocator@U?$pair@$$CBV?$basic_string@DU?$char_traits@D@std@@V?$allocator@D@2@@std@@V12@@std@@@2@$0A@@std@@@std@@IAEPAU_Node@?$_Tree_nod@V?$_Tmap_traits@V?$basic_string@DU?$char_traits@D@std@@V?$allocator@D@2@@std@@V12@U?$less@V?$basic_string@DU?$char_traits@D@std@@V?$allocator@D@2@@std@@@2@V?$allocator@U?$pair@$$CBV?$basic_string@DU?$char_traits@D@std@@V?$allocator@D@2@@std@@V12@@std@@@2@$0A@@std@@@2@XZ$0 1001459c f i main.obj
 0001:0001388c       __catch$?_Insert_n@?$vector@HV?$allocator@H@std@@@std@@IAEXV?$_Vector_const_iterator@HV?$allocator@H@std@@@2@IABH@Z$0 1001488c f i main.obj
 0001:000139e3       __catch$?_Insert_n@?$vector@HV?$allocator@H@std@@@std@@IAEXV?$_Vector_const_iterator@HV?$allocator@H@std@@@2@IABH@Z$2 100149e3 f i main.obj
 0001:00014207       __catch$?_Buynode@?$list@PAVGeometry@osg@@V?$allocator@PAVGeometry@osg@@@std@@@std@@IAEPAU_Node@?$_List_nod@PAVGeometry@osg@@V?$allocator@PAVGeometry@osg@@@std@@@2@PAU342@0ABQAVGeometry@osg@@@Z$0 10015207 f i main.obj
 0001:00014647       __catch$?_Buynode@?$list@VReadResult@ReaderWriter@osgDB@@V?$allocator@VReadResult@ReaderWriter@osgDB@@@std@@@std@@IAEPAU_Node@?$_List_nod@VReadResult@ReaderWriter@osgDB@@V?$allocator@VReadResult@ReaderWriter@osgDB@@@std@@@2@PAU342@0ABVReadResult@ReaderWriter@osgDB@@@Z$0 10015647 f i main.obj
 0001:00014af7       __catch$?_Buynode@?$list@V?$basic_string@DU?$char_traits@D@std@@V?$allocator@D@2@@std@@V?$allocator@V?$basic_string@DU?$char_traits@D@std@@V?$allocator@D@2@@std@@@2@@std@@IAEPAU_Node@?$_List_nod@V?$basic_string@DU?$char_traits@D@std@@V?$allocator@D@2@@std@@V?$allocator@V?$basic_string@DU?$char_traits@D@std@@V?$allocator@D@2@@std@@@2@@2@PAU342@0ABV?$basic_string@DU?$char_traits@D@std@@V?$allocator@D@2@@2@@Z$0 10015af7 f i main.obj
 0001:00014ed7       __catch$?_Buynode@?$list@PAVZipEntry@@V?$allocator@PAVZipEntry@@@std@@@std@@IAEPAU_Node@?$_List_nod@PAVZipEntry@@V?$allocator@PAVZipEntry@@@std@@@2@PAU342@0ABQAVZipEntry@@@Z$0 10015ed7 f i main.obj
 0001:00015347       __catch$?_Buynode@?$list@U?$pair@V?$basic_string@DU?$char_traits@D@std@@V?$allocator@D@2@@std@@V12@@std@@V?$allocator@U?$pair@V?$basic_string@DU?$char_traits@D@std@@V?$allocator@D@2@@std@@V12@@std@@@2@@std@@IAEPAU_Node@?$_List_nod@U?$pair@V?$basic_string@DU?$char_traits@D@std@@V?$allocator@D@2@@std@@V12@@std@@V?$allocator@U?$pair@V?$basic_string@DU?$char_traits@D@std@@V?$allocator@D@2@@std@@V12@@std@@@2@@2@PAU342@0ABU?$pair@V?$basic_string@DU?$char_traits@D@std@@V?$allocator@D@2@@std@@V12@@2@@Z$0 10016347 f i main.obj
 0001:00015e9c       __catch$?_Buynode@?$_Tree@V?$_Tmap_traits@V?$basic_string@DU?$char_traits@D@std@@V?$allocator@D@2@@std@@V12@U?$less@V?$basic_string@DU?$char_traits@D@std@@V?$allocator@D@2@@std@@@2@V?$allocator@U?$pair@$$CBV?$basic_string@DU?$char_traits@D@std@@V?$allocator@D@2@@std@@V12@@std@@@2@$0A@@std@@@std@@IAEPAU_Node@?$_Tree_nod@V?$_Tmap_traits@V?$basic_string@DU?$char_traits@D@std@@V?$allocator@D@2@@std@@V12@U?$less@V?$basic_string@DU?$char_traits@D@std@@V?$allocator@D@2@@std@@@2@V?$allocator@U?$pair@$$CBV?$basic_string@DU?$char_traits@D@std@@V?$allocator@D@2@@std@@V12@@std@@@2@$0A@@std@@@2@PAU342@00ABU?$pair@$$CBV?$basic_string@DU?$char_traits@D@std@@V?$allocator@D@2@@std@@V12@@2@D@Z$0 10016e9c f i main.obj
 0001:00016f45       __catch$??$?6U?$char_traits@D@std@@@std@@YAAAV?$basic_ostream@DU?$char_traits@D@std@@@0@AAV10@PBD@Z$0 10017f45 f i main.obj
 0001:00019f28       __catch$??$_Construct@V?$_String_iterator@_WU?$char_traits@_W@std@@V?$allocator@_W@2@@std@@@?$basic_string@DU?$char_traits@D@std@@V?$allocator@D@2@@std@@QAEXV?$_String_iterator@_WU?$char_traits@_W@std@@V?$allocator@_W@2@@1@0Uforward_iterator_tag@1@@Z$0 1001af28 f i main.obj
 0001:0001a02c       __catch$??$_Construct@V?$_String_iterator@DU?$char_traits@D@std@@V?$allocator@D@2@@std@@@?$basic_string@_WU?$char_traits@_W@std@@V?$allocator@_W@2@@std@@QAEXV?$_String_iterator@DU?$char_traits@D@std@@V?$allocator@D@2@@1@0Uforward_iterator_tag@1@@Z$0 1001b02c f i main.obj
 0001:0002ae78       ?ArrayUnwindFilter@@YAHPAU_EXCEPTION_POINTERS@@@Z 1002be78 f   MSVCRT:ehvecdtr.obj
 0001:0002b030       __unwindfunclet$?ToLower@@YA?AV?$basic_string@DU?$char_traits@D@std@@V?$allocator@D@2@@std@@V12@@Z$0 1002c030 f   main.obj
 0001:0002b039       __unwindfunclet$?ToLower@@YA?AV?$basic_string@DU?$char_traits@D@std@@V?$allocator@D@2@@std@@V12@@Z$1 1002c039 f   main.obj
 0001:0002b053       __ehhandler$?ToLower@@YA?AV?$basic_string@DU?$char_traits@D@std@@V?$allocator@D@2@@std@@V12@@Z 1002c053 f   main.obj
 0001:0002b06e       __unwindfunclet$?ToFileType@@YA?AV?$basic_string@DU?$char_traits@D@std@@V?$allocator@D@2@@std@@PBD@Z$0 1002c06e f   main.obj
 0001:0002b088       __unwindfunclet$?ToFileType@@YA?AV?$basic_string@DU?$char_traits@D@std@@V?$allocator@D@2@@std@@PBD@Z$1 1002c088 f   main.obj
 0001:0002b091       __ehhandler$?ToFileType@@YA?AV?$basic_string@DU?$char_traits@D@std@@V?$allocator@D@2@@std@@PBD@Z 1002c091 f   main.obj
 0001:0002b0b6       __unwindfunclet$?ToFileType@@YA?AV?$basic_string@DU?$char_traits@D@std@@V?$allocator@D@2@@std@@PAD@Z$0 1002c0b6 f   main.obj
 0001:0002b0d0       __unwindfunclet$?ToFileType@@YA?AV?$basic_string@DU?$char_traits@D@std@@V?$allocator@D@2@@std@@PAD@Z$1 1002c0d0 f   main.obj
 0001:0002b0d9       __ehhandler$?ToFileType@@YA?AV?$basic_string@DU?$char_traits@D@std@@V?$allocator@D@2@@std@@PAD@Z 1002c0d9 f   main.obj
 0001:0002b0fe       __unwindfunclet$?LoadSceneFromFile@@YA_NPADPAVGroup@osg@@AAPADPAVOptions@osgDB@@@Z$0 1002c0fe f   main.obj
 0001:0002b107       __unwindfunclet$?LoadSceneFromFile@@YA_NPADPAVGroup@osg@@AAPADPAVOptions@osgDB@@@Z$1 1002c107 f   main.obj
 0001:0002b10f       __ehhandler$?LoadSceneFromFile@@YA_NPADPAVGroup@osg@@AAPADPAVOptions@osgDB@@@Z 1002c10f f   main.obj
 0001:0002b12d       __unwindfunclet$?LoadSceneFromStream@@YA_NAAV?$basic_stringstream@DU?$char_traits@D@std@@V?$allocator@D@2@@std@@PADPAVGroup@osg@@AAPADPAVOptions@osgDB@@@Z$0 1002c12d f   main.obj
 0001:0002b135       __unwindfunclet$?LoadSceneFromStream@@YA_NAAV?$basic_stringstream@DU?$char_traits@D@std@@V?$allocator@D@2@@std@@PADPAVGroup@osg@@AAPADPAVOptions@osgDB@@@Z$1 1002c135 f   main.obj
 0001:0002b141       __unwindfunclet$?LoadSceneFromStream@@YA_NAAV?$basic_stringstream@DU?$char_traits@D@std@@V?$allocator@D@2@@std@@PADPAVGroup@osg@@AAPADPAVOptions@osgDB@@@Z$2 1002c141 f   main.obj
 0001:0002b14d       __unwindfunclet$?LoadSceneFromStream@@YA_NAAV?$basic_stringstream@DU?$char_traits@D@std@@V?$allocator@D@2@@std@@PADPAVGroup@osg@@AAPADPAVOptions@osgDB@@@Z$3 1002c14d f   main.obj
 0001:0002b159       __unwindfunclet$?LoadSceneFromStream@@YA_NAAV?$basic_stringstream@DU?$char_traits@D@std@@V?$allocator@D@2@@std@@PADPAVGroup@osg@@AAPADPAVOptions@osgDB@@@Z$4 1002c159 f   main.obj
 0001:0002b162       __unwindfunclet$?LoadSceneFromStream@@YA_NAAV?$basic_stringstream@DU?$char_traits@D@std@@V?$allocator@D@2@@std@@PADPAVGroup@osg@@AAPADPAVOptions@osgDB@@@Z$5 1002c162 f   main.obj
 0001:0002b16d       __ehhandler$?LoadSceneFromStream@@YA_NAAV?$basic_stringstream@DU?$char_traits@D@std@@V?$allocator@D@2@@std@@PADPAVGroup@osg@@AAPADPAVOptions@osgDB@@@Z 1002c16d f   main.obj
 0001:0002b195       __unwindfunclet$?SaveSceneToStream@@YA_NAAV?$basic_stringstream@DU?$char_traits@D@std@@V?$allocator@D@2@@std@@AAHPBDPAVNode@osg@@AAPAD@Z$0 1002c195 f   main.obj
 0001:0002b19d       __unwindfunclet$?SaveSceneToStream@@YA_NAAV?$basic_stringstream@DU?$char_traits@D@std@@V?$allocator@D@2@@std@@AAHPBDPAVNode@osg@@AAPAD@Z$1 1002c19d f   main.obj
 0001:0002b1a9       __unwindfunclet$?SaveSceneToStream@@YA_NAAV?$basic_stringstream@DU?$char_traits@D@std@@V?$allocator@D@2@@std@@AAHPBDPAVNode@osg@@AAPAD@Z$2 1002c1a9 f   main.obj
 0001:0002b1b7       __unwindfunclet$?SaveSceneToStream@@YA_NAAV?$basic_stringstream@DU?$char_traits@D@std@@V?$allocator@D@2@@std@@AAHPBDPAVNode@osg@@AAPAD@Z$3 1002c1b7 f   main.obj
 0001:0002b1c5       __unwindfunclet$?SaveSceneToStream@@YA_NAAV?$basic_stringstream@DU?$char_traits@D@std@@V?$allocator@D@2@@std@@AAHPBDPAVNode@osg@@AAPAD@Z$4 1002c1c5 f   main.obj
 0001:0002b1d0       __unwindfunclet$?SaveSceneToStream@@YA_NAAV?$basic_stringstream@DU?$char_traits@D@std@@V?$allocator@D@2@@std@@AAHPBDPAVNode@osg@@AAPAD@Z$6 1002c1d0 f   main.obj
 0001:0002b1d9       __unwindfunclet$?SaveSceneToStream@@YA_NAAV?$basic_stringstream@DU?$char_traits@D@std@@V?$allocator@D@2@@std@@AAHPBDPAVNode@osg@@AAPAD@Z$7 1002c1d9 f   main.obj
 0001:0002b1e5       __ehhandler$?SaveSceneToStream@@YA_NAAV?$basic_stringstream@DU?$char_traits@D@std@@V?$allocator@D@2@@std@@AAHPBDPAVNode@osg@@AAPAD@Z 1002c1e5 f   main.obj
 0001:0002b20d       __unwindfunclet$?SimplifyScene@@YAXPAVNode@osg@@M@Z$0 1002c20d f   main.obj
 0001:0002b215       __unwindfunclet$?SimplifyScene@@YAXPAVNode@osg@@M@Z$1 1002c215 f   main.obj
 0001:0002b221       __ehhandler$?SimplifyScene@@YAXPAVNode@osg@@M@Z 1002c221 f   main.obj
 0001:0002b23f       __unwindfunclet$?GetVertexCount@@YA?AU?$pair@HH@std@@PAVNode@osg@@@Z$0 1002c23f f   main.obj
 0001:0002b24a       __ehhandler$?GetVertexCount@@YA?AU?$pair@HH@std@@PAVNode@osg@@@Z 1002c24a f   main.obj
 0001:0002b265       __unwindfunclet$?ConvertZipEntry@@YA_NPAVZipEntry@@PAUHZIP__@@PBDAAVOptionsReader@@AAPAD@Z$0 1002c265 f   main.obj
 0001:0002b26d       __unwindfunclet$?ConvertZipEntry@@YA_NPAVZipEntry@@PAUHZIP__@@PBDAAVOptionsReader@@AAPAD@Z$1 1002c26d f   main.obj
 0001:0002b279       __unwindfunclet$?ConvertZipEntry@@YA_NPAVZipEntry@@PAUHZIP__@@PBDAAVOptionsReader@@AAPAD@Z$2 1002c279 f   main.obj
 0001:0002b287       __unwindfunclet$?ConvertZipEntry@@YA_NPAVZipEntry@@PAUHZIP__@@PBDAAVOptionsReader@@AAPAD@Z$4 1002c287 f   main.obj
 0001:0002b295       __unwindfunclet$?ConvertZipEntry@@YA_NPAVZipEntry@@PAUHZIP__@@PBDAAVOptionsReader@@AAPAD@Z$5 1002c295 f   main.obj
 0001:0002b2a0       __unwindfunclet$?ConvertZipEntry@@YA_NPAVZipEntry@@PAUHZIP__@@PBDAAVOptionsReader@@AAPAD@Z$6 1002c2a0 f   main.obj
 0001:0002b2ac       __unwindfunclet$?ConvertZipEntry@@YA_NPAVZipEntry@@PAUHZIP__@@PBDAAVOptionsReader@@AAPAD@Z$7 1002c2ac f   main.obj
 0001:0002b2b8       __unwindfunclet$?ConvertZipEntry@@YA_NPAVZipEntry@@PAUHZIP__@@PBDAAVOptionsReader@@AAPAD@Z$8 1002c2b8 f   main.obj
 0001:0002b2c4       __unwindfunclet$?ConvertZipEntry@@YA_NPAVZipEntry@@PAUHZIP__@@PBDAAVOptionsReader@@AAPAD@Z$9 1002c2c4 f   main.obj
 0001:0002b2d2       __unwindfunclet$?ConvertZipEntry@@YA_NPAVZipEntry@@PAUHZIP__@@PBDAAVOptionsReader@@AAPAD@Z$10 1002c2d2 f   main.obj
 0001:0002b2da       __unwindfunclet$?ConvertZipEntry@@YA_NPAVZipEntry@@PAUHZIP__@@PBDAAVOptionsReader@@AAPAD@Z$11 1002c2da f   main.obj
 0001:0002b2e6       __unwindfunclet$?ConvertZipEntry@@YA_NPAVZipEntry@@PAUHZIP__@@PBDAAVOptionsReader@@AAPAD@Z$12 1002c2e6 f   main.obj
 0001:0002b2f2       __unwindfunclet$?ConvertZipEntry@@YA_NPAVZipEntry@@PAUHZIP__@@PBDAAVOptionsReader@@AAPAD@Z$13 1002c2f2 f   main.obj
 0001:0002b2fe       __unwindfunclet$?ConvertZipEntry@@YA_NPAVZipEntry@@PAUHZIP__@@PBDAAVOptionsReader@@AAPAD@Z$14 1002c2fe f   main.obj
 0001:0002b30a       __unwindfunclet$?ConvertZipEntry@@YA_NPAVZipEntry@@PAUHZIP__@@PBDAAVOptionsReader@@AAPAD@Z$15 1002c30a f   main.obj
 0001:0002b316       __unwindfunclet$?ConvertZipEntry@@YA_NPAVZipEntry@@PAUHZIP__@@PBDAAVOptionsReader@@AAPAD@Z$16 1002c316 f   main.obj
 0001:0002b322       __unwindfunclet$?ConvertZipEntry@@YA_NPAVZipEntry@@PAUHZIP__@@PBDAAVOptionsReader@@AAPAD@Z$17 1002c322 f   main.obj
 0001:0002b32e       __unwindfunclet$?ConvertZipEntry@@YA_NPAVZipEntry@@PAUHZIP__@@PBDAAVOptionsReader@@AAPAD@Z$18 1002c32e f   main.obj
 0001:0002b33a       __unwindfunclet$?ConvertZipEntry@@YA_NPAVZipEntry@@PAUHZIP__@@PBDAAVOptionsReader@@AAPAD@Z$19 1002c33a f   main.obj
 0001:0002b346       __unwindfunclet$?ConvertZipEntry@@YA_NPAVZipEntry@@PAUHZIP__@@PBDAAVOptionsReader@@AAPAD@Z$20 1002c346 f   main.obj
 0001:0002b352       __unwindfunclet$?ConvertZipEntry@@YA_NPAVZipEntry@@PAUHZIP__@@PBDAAVOptionsReader@@AAPAD@Z$21 1002c352 f   main.obj
 0001:0002b35e       __unwindfunclet$?ConvertZipEntry@@YA_NPAVZipEntry@@PAUHZIP__@@PBDAAVOptionsReader@@AAPAD@Z$22 1002c35e f   main.obj
 0001:0002b36a       __unwindfunclet$?ConvertZipEntry@@YA_NPAVZipEntry@@PAUHZIP__@@PBDAAVOptionsReader@@AAPAD@Z$23 1002c36a f   main.obj
 0001:0002b376       __unwindfunclet$?ConvertZipEntry@@YA_NPAVZipEntry@@PAUHZIP__@@PBDAAVOptionsReader@@AAPAD@Z$24 1002c376 f   main.obj
 0001:0002b382       __unwindfunclet$?ConvertZipEntry@@YA_NPAVZipEntry@@PAUHZIP__@@PBDAAVOptionsReader@@AAPAD@Z$25 1002c382 f   main.obj
 0001:0002b38e       __unwindfunclet$?ConvertZipEntry@@YA_NPAVZipEntry@@PAUHZIP__@@PBDAAVOptionsReader@@AAPAD@Z$26 1002c38e f   main.obj
 0001:0002b39a       __unwindfunclet$?ConvertZipEntry@@YA_NPAVZipEntry@@PAUHZIP__@@PBDAAVOptionsReader@@AAPAD@Z$27 1002c39a f   main.obj
 0001:0002b3a6       __unwindfunclet$?ConvertZipEntry@@YA_NPAVZipEntry@@PAUHZIP__@@PBDAAVOptionsReader@@AAPAD@Z$28 1002c3a6 f   main.obj
 0001:0002b3b2       __unwindfunclet$?ConvertZipEntry@@YA_NPAVZipEntry@@PAUHZIP__@@PBDAAVOptionsReader@@AAPAD@Z$29 1002c3b2 f   main.obj
 0001:0002b3be       __unwindfunclet$?ConvertZipEntry@@YA_NPAVZipEntry@@PAUHZIP__@@PBDAAVOptionsReader@@AAPAD@Z$30 1002c3be f   main.obj
 0001:0002b3ca       __unwindfunclet$?ConvertZipEntry@@YA_NPAVZipEntry@@PAUHZIP__@@PBDAAVOptionsReader@@AAPAD@Z$31 1002c3ca f   main.obj
 0001:0002b3d6       __unwindfunclet$?ConvertZipEntry@@YA_NPAVZipEntry@@PAUHZIP__@@PBDAAVOptionsReader@@AAPAD@Z$32 1002c3d6 f   main.obj
 0001:0002b3e2       __unwindfunclet$?ConvertZipEntry@@YA_NPAVZipEntry@@PAUHZIP__@@PBDAAVOptionsReader@@AAPAD@Z$33 1002c3e2 f   main.obj
 0001:0002b3ee       __unwindfunclet$?ConvertZipEntry@@YA_NPAVZipEntry@@PAUHZIP__@@PBDAAVOptionsReader@@AAPAD@Z$34 1002c3ee f   main.obj
 0001:0002b3fa       __unwindfunclet$?ConvertZipEntry@@YA_NPAVZipEntry@@PAUHZIP__@@PBDAAVOptionsReader@@AAPAD@Z$35 1002c3fa f   main.obj
 0001:0002b406       __unwindfunclet$?ConvertZipEntry@@YA_NPAVZipEntry@@PAUHZIP__@@PBDAAVOptionsReader@@AAPAD@Z$36 1002c406 f   main.obj
 0001:0002b40f       __unwindfunclet$?ConvertZipEntry@@YA_NPAVZipEntry@@PAUHZIP__@@PBDAAVOptionsReader@@AAPAD@Z$37 1002c40f f   main.obj
 0001:0002b41b       __unwindfunclet$?ConvertZipEntry@@YA_NPAVZipEntry@@PAUHZIP__@@PBDAAVOptionsReader@@AAPAD@Z$38 1002c41b f   main.obj
 0001:0002b424       __unwindfunclet$?ConvertZipEntry@@YA_NPAVZipEntry@@PAUHZIP__@@PBDAAVOptionsReader@@AAPAD@Z$39 1002c424 f   main.obj
 0001:0002b42d       __unwindfunclet$?ConvertZipEntry@@YA_NPAVZipEntry@@PAUHZIP__@@PBDAAVOptionsReader@@AAPAD@Z$40 1002c42d f   main.obj
 0001:0002b439       __ehhandler$?ConvertZipEntry@@YA_NPAVZipEntry@@PAUHZIP__@@PBDAAVOptionsReader@@AAPAD@Z 1002c439 f   main.obj
 0001:0002b461       __unwindfunclet$?RecompressTGA@@YAXAAPAXAAH@Z$0 1002c461 f   main.obj
 0001:0002b46d       __unwindfunclet$?RecompressTGA@@YAXAAPAXAAH@Z$1 1002c46d f   main.obj
 0001:0002b479       __unwindfunclet$?RecompressTGA@@YAXAAPAXAAH@Z$2 1002c479 f   main.obj
 0001:0002b485       __unwindfunclet$?RecompressTGA@@YAXAAPAXAAH@Z$3 1002c485 f   main.obj
 0001:0002b491       __unwindfunclet$?RecompressTGA@@YAXAAPAXAAH@Z$4 1002c491 f   main.obj
 0001:0002b49d       __ehhandler$?RecompressTGA@@YAXAAPAXAAH@Z 1002c49d f   main.obj
 0001:0002b4c8       __unwindfunclet$?ReEncodeImage@@YA_NAAPAXAAHV?$basic_string@DU?$char_traits@D@std@@V?$allocator@D@2@@std@@VOptionsReader@@@Z$0 1002c4c8 f   main.obj
 0001:0002b4d0       __unwindfunclet$?ReEncodeImage@@YA_NAAPAXAAHV?$basic_string@DU?$char_traits@D@std@@V?$allocator@D@2@@std@@VOptionsReader@@@Z$1 1002c4d0 f   main.obj
 0001:0002b4d9       __unwindfunclet$?ReEncodeImage@@YA_NAAPAXAAHV?$basic_string@DU?$char_traits@D@std@@V?$allocator@D@2@@std@@VOptionsReader@@@Z$2 1002c4d9 f   main.obj
 0001:0002b4e5       __unwindfunclet$?ReEncodeImage@@YA_NAAPAXAAHV?$basic_string@DU?$char_traits@D@std@@V?$allocator@D@2@@std@@VOptionsReader@@@Z$3 1002c4e5 f   main.obj
 0001:0002b4f1       __unwindfunclet$?ReEncodeImage@@YA_NAAPAXAAHV?$basic_string@DU?$char_traits@D@std@@V?$allocator@D@2@@std@@VOptionsReader@@@Z$4 1002c4f1 f   main.obj
 0001:0002b4fd       __unwindfunclet$?ReEncodeImage@@YA_NAAPAXAAHV?$basic_string@DU?$char_traits@D@std@@V?$allocator@D@2@@std@@VOptionsReader@@@Z$5 1002c4fd f   main.obj
 0001:0002b509       __unwindfunclet$?ReEncodeImage@@YA_NAAPAXAAHV?$basic_string@DU?$char_traits@D@std@@V?$allocator@D@2@@std@@VOptionsReader@@@Z$6 1002c509 f   main.obj
 0001:0002b515       __unwindfunclet$?ReEncodeImage@@YA_NAAPAXAAHV?$basic_string@DU?$char_traits@D@std@@V?$allocator@D@2@@std@@VOptionsReader@@@Z$7 1002c515 f   main.obj
 0001:0002b520       __ehhandler$?ReEncodeImage@@YA_NAAPAXAAHV?$basic_string@DU?$char_traits@D@std@@V?$allocator@D@2@@std@@VOptionsReader@@@Z 1002c520 f   main.obj
 0001:0002b548       __unwindfunclet$?ReSizeImage@@YA_NAAPAXAAHV?$basic_string@DU?$char_traits@D@std@@V?$allocator@D@2@@std@@VOptionsReader@@@Z$0 1002c548 f   main.obj
 0001:0002b550       __unwindfunclet$?ReSizeImage@@YA_NAAPAXAAHV?$basic_string@DU?$char_traits@D@std@@V?$allocator@D@2@@std@@VOptionsReader@@@Z$1 1002c550 f   main.obj
 0001:0002b559       __unwindfunclet$?ReSizeImage@@YA_NAAPAXAAHV?$basic_string@DU?$char_traits@D@std@@V?$allocator@D@2@@std@@VOptionsReader@@@Z$2 1002c559 f   main.obj
 0001:0002b565       __unwindfunclet$?ReSizeImage@@YA_NAAPAXAAHV?$basic_string@DU?$char_traits@D@std@@V?$allocator@D@2@@std@@VOptionsReader@@@Z$3 1002c565 f   main.obj
 0001:0002b571       __unwindfunclet$?ReSizeImage@@YA_NAAPAXAAHV?$basic_string@DU?$char_traits@D@std@@V?$allocator@D@2@@std@@VOptionsReader@@@Z$4 1002c571 f   main.obj
 0001:0002b57d       __unwindfunclet$?ReSizeImage@@YA_NAAPAXAAHV?$basic_string@DU?$char_traits@D@std@@V?$allocator@D@2@@std@@VOptionsReader@@@Z$5 1002c57d f   main.obj
 0001:0002b588       __ehhandler$?ReSizeImage@@YA_NAAPAXAAHV?$basic_string@DU?$char_traits@D@std@@V?$allocator@D@2@@std@@VOptionsReader@@@Z 1002c588 f   main.obj
 0001:0002b5b0       __unwindfunclet$?ResizeTexture@@YAXV?$basic_string@DU?$char_traits@D@std@@V?$allocator@D@2@@std@@AAPAXAAHAAVOptionsReader@@@Z$0 1002c5b0 f   main.obj
 0001:0002b5b9       __unwindfunclet$?ResizeTexture@@YAXV?$basic_string@DU?$char_traits@D@std@@V?$allocator@D@2@@std@@AAPAXAAHAAVOptionsReader@@@Z$1 1002c5b9 f   main.obj
 0001:0002b5c5       __unwindfunclet$?ResizeTexture@@YAXV?$basic_string@DU?$char_traits@D@std@@V?$allocator@D@2@@std@@AAPAXAAHAAVOptionsReader@@@Z$2 1002c5c5 f   main.obj
 0001:0002b5d3       __unwindfunclet$?ResizeTexture@@YAXV?$basic_string@DU?$char_traits@D@std@@V?$allocator@D@2@@std@@AAPAXAAHAAVOptionsReader@@@Z$3 1002c5d3 f   main.obj
 0001:0002b5de       __ehhandler$?ResizeTexture@@YAXV?$basic_string@DU?$char_traits@D@std@@V?$allocator@D@2@@std@@AAPAXAAHAAVOptionsReader@@@Z 1002c5de f   main.obj
 0001:0002b606       __unwindfunclet$?ResizeTextures@@YAXAAPAXAAHAAVOptionsReader@@@Z$0 1002c606 f   main.obj
 0001:0002b612       __unwindfunclet$?ResizeTextures@@YAXAAPAXAAHAAVOptionsReader@@@Z$1 1002c612 f   main.obj
 0001:0002b620       __unwindfunclet$?ResizeTextures@@YAXAAPAXAAHAAVOptionsReader@@@Z$2 1002c620 f   main.obj
 0001:0002b62b       __unwindfunclet$?ResizeTextures@@YAXAAPAXAAHAAVOptionsReader@@@Z$3 1002c62b f   main.obj
 0001:0002b636       __unwindfunclet$?ResizeTextures@@YAXAAPAXAAHAAVOptionsReader@@@Z$4 1002c636 f   main.obj
 0001:0002b644       __unwindfunclet$?ResizeTextures@@YAXAAPAXAAHAAVOptionsReader@@@Z$5 1002c644 f   main.obj
 0001:0002b650       __unwindfunclet$?ResizeTextures@@YAXAAPAXAAHAAVOptionsReader@@@Z$6 1002c650 f   main.obj
 0001:0002b65c       __unwindfunclet$?ResizeTextures@@YAXAAPAXAAHAAVOptionsReader@@@Z$7 1002c65c f   main.obj
 0001:0002b667       __unwindfunclet$?ResizeTextures@@YAXAAPAXAAHAAVOptionsReader@@@Z$9 1002c667 f   main.obj
 0001:0002b673       __unwindfunclet$?ResizeTextures@@YAXAAPAXAAHAAVOptionsReader@@@Z$10 1002c673 f   main.obj
 0001:0002b67f       __unwindfunclet$?ResizeTextures@@YAXAAPAXAAHAAVOptionsReader@@@Z$11 1002c67f f   main.obj
 0001:0002b68b       __unwindfunclet$?ResizeTextures@@YAXAAPAXAAHAAVOptionsReader@@@Z$13 1002c68b f   main.obj
 0001:0002b697       __unwindfunclet$?ResizeTextures@@YAXAAPAXAAHAAVOptionsReader@@@Z$14 1002c697 f   main.obj
 0001:0002b6a3       __ehhandler$?ResizeTextures@@YAXAAPAXAAHAAVOptionsReader@@@Z 1002c6a3 f   main.obj
 0001:0002b6cb       __unwindfunclet$?ConvertTextures@@YAXAAPAXAAHAAVOptionsReader@@@Z$0 1002c6cb f   main.obj
 0001:0002b6d6       __unwindfunclet$?ConvertTextures@@YAXAAPAXAAHAAVOptionsReader@@@Z$1 1002c6d6 f   main.obj
 0001:0002b6e1       __unwindfunclet$?ConvertTextures@@YAXAAPAXAAHAAVOptionsReader@@@Z$2 1002c6e1 f   main.obj
 0001:0002b6ef       __unwindfunclet$?ConvertTextures@@YAXAAPAXAAHAAVOptionsReader@@@Z$3 1002c6ef f   main.obj
 0001:0002b6fb       __unwindfunclet$?ConvertTextures@@YAXAAPAXAAHAAVOptionsReader@@@Z$4 1002c6fb f   main.obj
 0001:0002b707       __unwindfunclet$?ConvertTextures@@YAXAAPAXAAHAAVOptionsReader@@@Z$5 1002c707 f   main.obj
 0001:0002b712       __unwindfunclet$?ConvertTextures@@YAXAAPAXAAHAAVOptionsReader@@@Z$7 1002c712 f   main.obj
 0001:0002b71e       __unwindfunclet$?ConvertTextures@@YAXAAPAXAAHAAVOptionsReader@@@Z$8 1002c71e f   main.obj
 0001:0002b72a       __unwindfunclet$?ConvertTextures@@YAXAAPAXAAHAAVOptionsReader@@@Z$10 1002c72a f   main.obj
 0001:0002b736       __unwindfunclet$?ConvertTextures@@YAXAAPAXAAHAAVOptionsReader@@@Z$11 1002c736 f   main.obj
 0001:0002b742       __unwindfunclet$?ConvertTextures@@YAXAAPAXAAHAAVOptionsReader@@@Z$12 1002c742 f   main.obj
 0001:0002b74e       __unwindfunclet$?ConvertTextures@@YAXAAPAXAAHAAVOptionsReader@@@Z$13 1002c74e f   main.obj
 0001:0002b75a       __unwindfunclet$?ConvertTextures@@YAXAAPAXAAHAAVOptionsReader@@@Z$15 1002c75a f   main.obj
 0001:0002b766       __unwindfunclet$?ConvertTextures@@YAXAAPAXAAHAAVOptionsReader@@@Z$16 1002c766 f   main.obj
 0001:0002b772       __unwindfunclet$?ConvertTextures@@YAXAAPAXAAHAAVOptionsReader@@@Z$17 1002c772 f   main.obj
 0001:0002b77e       __ehhandler$?ConvertTextures@@YAXAAPAXAAHAAVOptionsReader@@@Z 1002c77e f   main.obj
 0001:0002b7b0       __unwindfunclet$??0FixNamesVisitor@@QAE@XZ$0 1002c7b0 f   main.obj
 0001:0002b7cd       __ehhandler$??0FixNamesVisitor@@QAE@XZ 1002c7cd f   main.obj
 0001:0002b7f0       __unwindfunclet$?apply@FixNamesVisitor@@UAEXAAVGeode@osg@@@Z$2 1002c7f0 f   main.obj
 0001:0002b7f9       __unwindfunclet$?apply@FixNamesVisitor@@UAEXAAVGeode@osg@@@Z$5 1002c7f9 f   main.obj
 0001:0002b802       __unwindfunclet$?apply@FixNamesVisitor@@UAEXAAVGeode@osg@@@Z$8 1002c802 f   main.obj
 0001:0002b80b       __ehhandler$?apply@FixNamesVisitor@@UAEXAAVGeode@osg@@@Z 1002c80b f   main.obj
 0001:0002b830       __unwindfunclet$?replace@FixNamesVisitor@@AAE?AV?$basic_string@DU?$char_traits@D@std@@V?$allocator@D@2@@std@@V23@DD@Z$0 1002c830 f   main.obj
 0001:0002b839       __unwindfunclet$?replace@FixNamesVisitor@@AAE?AV?$basic_string@DU?$char_traits@D@std@@V?$allocator@D@2@@std@@V23@DD@Z$1 1002c839 f   main.obj
 0001:0002b842       __unwindfunclet$?replace@FixNamesVisitor@@AAE?AV?$basic_string@DU?$char_traits@D@std@@V?$allocator@D@2@@std@@V23@DD@Z$2 1002c842 f   main.obj
 0001:0002b85c       __ehhandler$?replace@FixNamesVisitor@@AAE?AV?$basic_string@DU?$char_traits@D@std@@V?$allocator@D@2@@std@@V23@DD@Z 1002c85c f   main.obj
 0001:0002b890       __unwindfunclet$?apply@FixNamesVisitor@@UAEXAAVNode@osg@@@Z$2 1002c890 f   main.obj
 0001:0002b899       __unwindfunclet$?apply@FixNamesVisitor@@UAEXAAVNode@osg@@@Z$5 1002c899 f   main.obj
 0001:0002b8a2       __ehhandler$?apply@FixNamesVisitor@@UAEXAAVNode@osg@@@Z 1002c8a2 f   main.obj
 0001:0002b8c0       __unwindfunclet$??0Triangulator@@QAE@XZ$0 1002c8c0 f   main.obj
 0001:0002b8dd       __unwindfunclet$??0Triangulator@@QAE@XZ$1 1002c8dd f   main.obj
 0001:0002b8e9       __ehhandler$??0Triangulator@@QAE@XZ 1002c8e9 f   main.obj
 0001:0002b910       __unwindfunclet$?apply@Triangulator@@UAEXAAVGeode@osg@@@Z$0 1002c910 f   main.obj
 0001:0002b918       __ehhandler$?apply@Triangulator@@UAEXAAVGeode@osg@@@Z 1002c918 f   main.obj
 0001:0002b940       __unwindfunclet$?ProcessGeometry@Triangulator@@AAEXPAVGeometry@osg@@@Z$0 1002c940 f   main.obj
 0001:0002b948       __unwindfunclet$?ProcessGeometry@Triangulator@@AAEXPAVGeometry@osg@@@Z$1 1002c948 f   main.obj
 0001:0002b953       __unwindfunclet$?ProcessGeometry@Triangulator@@AAEXPAVGeometry@osg@@@Z$3 1002c953 f   main.obj
 0001:0002b95e       __ehhandler$?ProcessGeometry@Triangulator@@AAEXPAVGeometry@osg@@@Z 1002c95e f   main.obj
 0001:0002b980       __unwindfunclet$??1Triangulator@@UAE@XZ$0 1002c980 f   main.obj
 0001:0002b98c       __ehhandler$??1Triangulator@@UAE@XZ 1002c98c f   main.obj
 0001:0002b9b0       __unwindfunclet$??0GatherGeometryVisitor@@QAE@XZ$0 1002c9b0 f   main.obj
 0001:0002b9cd       __unwindfunclet$??0GatherGeometryVisitor@@QAE@XZ$1 1002c9cd f   main.obj
 0001:0002b9d9       __ehhandler$??0GatherGeometryVisitor@@QAE@XZ 1002c9d9 f   main.obj
 0001:0002ba00       __unwindfunclet$?apply@GatherGeometryVisitor@@UAEXAAVGeode@osg@@@Z$0 1002ca00 f   main.obj
 0001:0002ba08       __ehhandler$?apply@GatherGeometryVisitor@@UAEXAAVGeode@osg@@@Z 1002ca08 f   main.obj
 0001:0002ba30       __unwindfunclet$??1GatherGeometryVisitor@@UAE@XZ$0 1002ca30 f   main.obj
 0001:0002ba3c       __ehhandler$??1GatherGeometryVisitor@@UAE@XZ 1002ca3c f   main.obj
 0001:0002ba60       __unwindfunclet$??0CountVertsVisitor@@QAE@XZ$0 1002ca60 f   main.obj
 0001:0002ba7d       __ehhandler$??0CountVertsVisitor@@QAE@XZ 1002ca7d f   main.obj
 0001:0002baa0       __unwindfunclet$?apply@CountVertsVisitor@@UAEXAAVGeode@osg@@@Z$0 1002caa0 f   main.obj
 0001:0002baa8       __unwindfunclet$?apply@CountVertsVisitor@@UAEXAAVGeode@osg@@@Z$1 1002caa8 f   main.obj
 0001:0002bab0       __ehhandler$?apply@CountVertsVisitor@@UAEXAAVGeode@osg@@@Z 1002cab0 f   main.obj
 0001:0002bad0       __unwindfunclet$??0PrimitiveWriter@@QAE@PAVGeometry@osg@@@Z$0 1002cad0 f   main.obj
 0001:0002bad8       __ehhandler$??0PrimitiveWriter@@QAE@PAVGeometry@osg@@@Z 1002cad8 f   main.obj
 0001:0002bb00       __unwindfunclet$??1PrimitiveWriter@@UAE@XZ$0 1002cb00 f   main.obj
 0001:0002bb08       __ehhandler$??1PrimitiveWriter@@UAE@XZ 1002cb08 f   main.obj
 0001:0002bb30       __unwindfunclet$??0ConditionPathsCallback@@QAE@AAVOptionsReader@@@Z$0 1002cb30 f   main.obj
 0001:0002bb50       __unwindfunclet$??0ConditionPathsCallback@@QAE@AAVOptionsReader@@@Z$1 1002cb50 f   main.obj
 0001:0002bb5b       __unwindfunclet$??0ConditionPathsCallback@@QAE@AAVOptionsReader@@@Z$2 1002cb5b f   main.obj
 0001:0002bb66       __unwindfunclet$??0ConditionPathsCallback@@QAE@AAVOptionsReader@@@Z$3 1002cb66 f   main.obj
 0001:0002bb75       __ehhandler$??0ConditionPathsCallback@@QAE@AAVOptionsReader@@@Z 1002cb75 f   main.obj
 0001:0002bb90       __unwindfunclet$?readNode@ManageMemoryCallback@@UAE?AVReadResult@ReaderWriter@osgDB@@ABV?$basic_string@DU?$char_traits@D@std@@V?$allocator@D@2@@std@@PBVOptions@4@@Z$0 1002cb90 f   main.obj
 0001:0002bb99       __unwindfunclet$?readNode@ManageMemoryCallback@@UAE?AVReadResult@ReaderWriter@osgDB@@ABV?$basic_string@DU?$char_traits@D@std@@V?$allocator@D@2@@std@@PBVOptions@4@@Z$1 1002cb99 f   main.obj
 0001:0002bbb3       __ehhandler$?readNode@ManageMemoryCallback@@UAE?AVReadResult@ReaderWriter@osgDB@@ABV?$basic_string@DU?$char_traits@D@std@@V?$allocator@D@2@@std@@PBVOptions@4@@Z 1002cbb3 f   main.obj
 0001:0002bbe0       __unwindfunclet$?readObject@ManageMemoryCallback@@UAE?AVReadResult@ReaderWriter@osgDB@@ABV?$basic_string@DU?$char_traits@D@std@@V?$allocator@D@2@@std@@PBVOptions@4@@Z$0 1002cbe0 f   main.obj
 0001:0002bbe9       __unwindfunclet$?readObject@ManageMemoryCallback@@UAE?AVReadResult@ReaderWriter@osgDB@@ABV?$basic_string@DU?$char_traits@D@std@@V?$allocator@D@2@@std@@PBVOptions@4@@Z$1 1002cbe9 f   main.obj
 0001:0002bc03       __ehhandler$?readObject@ManageMemoryCallback@@UAE?AVReadResult@ReaderWriter@osgDB@@ABV?$basic_string@DU?$char_traits@D@std@@V?$allocator@D@2@@std@@PBVOptions@4@@Z 1002cc03 f   main.obj
 0001:0002bc30       __unwindfunclet$?readHeightField@ManageMemoryCallback@@UAE?AVReadResult@ReaderWriter@osgDB@@ABV?$basic_string@DU?$char_traits@D@std@@V?$allocator@D@2@@std@@PBVOptions@4@@Z$0 1002cc30 f   main.obj
 0001:0002bc39       __unwindfunclet$?readHeightField@ManageMemoryCallback@@UAE?AVReadResult@ReaderWriter@osgDB@@ABV?$basic_string@DU?$char_traits@D@std@@V?$allocator@D@2@@std@@PBVOptions@4@@Z$1 1002cc39 f   main.obj
 0001:0002bc53       __ehhandler$?readHeightField@ManageMemoryCallback@@UAE?AVReadResult@ReaderWriter@osgDB@@ABV?$basic_string@DU?$char_traits@D@std@@V?$allocator@D@2@@std@@PBVOptions@4@@Z 1002cc53 f   main.obj
 0001:0002bc80       __unwindfunclet$??0OptionsReader@@QAE@XZ$0 1002cc80 f   main.obj
 0001:0002bc8c       __unwindfunclet$??0OptionsReader@@QAE@XZ$1 1002cc8c f   main.obj
 0001:0002bc98       __unwindfunclet$??0OptionsReader@@QAE@XZ$2 1002cc98 f   main.obj
 0001:0002bca4       __unwindfunclet$??0OptionsReader@@QAE@XZ$3 1002cca4 f   main.obj
 0001:0002bcb0       __unwindfunclet$??0OptionsReader@@QAE@XZ$4 1002ccb0 f   main.obj
 0001:0002bcbe       __ehhandler$??0OptionsReader@@QAE@XZ 1002ccbe f   main.obj
 0001:0002bce0       __unwindfunclet$?readShader@ImageCallback@@UAE?AVReadResult@ReaderWriter@osgDB@@ABV?$basic_string@DU?$char_traits@D@std@@V?$allocator@D@2@@std@@PBVOptions@4@@Z$0 1002cce0 f   main.obj
 0001:0002bce9       __unwindfunclet$?readShader@ImageCallback@@UAE?AVReadResult@ReaderWriter@osgDB@@ABV?$basic_string@DU?$char_traits@D@std@@V?$allocator@D@2@@std@@PBVOptions@4@@Z$1 1002cce9 f   main.obj
 0001:0002bcf2       __unwindfunclet$?readShader@ImageCallback@@UAE?AVReadResult@ReaderWriter@osgDB@@ABV?$basic_string@DU?$char_traits@D@std@@V?$allocator@D@2@@std@@PBVOptions@4@@Z$2 1002ccf2 f   main.obj
 0001:0002bd0c       __ehhandler$?readShader@ImageCallback@@UAE?AVReadResult@ReaderWriter@osgDB@@ABV?$basic_string@DU?$char_traits@D@std@@V?$allocator@D@2@@std@@PBVOptions@4@@Z 1002cd0c f   main.obj
 0001:0002bd40       __unwindfunclet$?readShader@ManageMemoryCallback@@UAE?AVReadResult@ReaderWriter@osgDB@@ABV?$basic_string@DU?$char_traits@D@std@@V?$allocator@D@2@@std@@PBVOptions@4@@Z$0 1002cd40 f   main.obj
 0001:0002bd49       __unwindfunclet$?readShader@ManageMemoryCallback@@UAE?AVReadResult@ReaderWriter@osgDB@@ABV?$basic_string@DU?$char_traits@D@std@@V?$allocator@D@2@@std@@PBVOptions@4@@Z$1 1002cd49 f   main.obj
 0001:0002bd63       __ehhandler$?readShader@ManageMemoryCallback@@UAE?AVReadResult@ReaderWriter@osgDB@@ABV?$basic_string@DU?$char_traits@D@std@@V?$allocator@D@2@@std@@PBVOptions@4@@Z 1002cd63 f   main.obj
 0001:0002bd90       __unwindfunclet$?readImage@ConditionPathsCallback@@UAE?AVReadResult@ReaderWriter@osgDB@@ABV?$basic_string@DU?$char_traits@D@std@@V?$allocator@D@2@@std@@PBVOptions@4@@Z$1 1002cd90 f   main.obj
 0001:0002bd99       __unwindfunclet$?readImage@ConditionPathsCallback@@UAE?AVReadResult@ReaderWriter@osgDB@@ABV?$basic_string@DU?$char_traits@D@std@@V?$allocator@D@2@@std@@PBVOptions@4@@Z$3 1002cd99 f   main.obj
 0001:0002bda2       __unwindfunclet$?readImage@ConditionPathsCallback@@UAE?AVReadResult@ReaderWriter@osgDB@@ABV?$basic_string@DU?$char_traits@D@std@@V?$allocator@D@2@@std@@PBVOptions@4@@Z$5 1002cda2 f   main.obj
 0001:0002bdb0       __unwindfunclet$?readImage@ConditionPathsCallback@@UAE?AVReadResult@ReaderWriter@osgDB@@ABV?$basic_string@DU?$char_traits@D@std@@V?$allocator@D@2@@std@@PBVOptions@4@@Z$6 1002cdb0 f   main.obj
 0001:0002bdbc       __unwindfunclet$?readImage@ConditionPathsCallback@@UAE?AVReadResult@ReaderWriter@osgDB@@ABV?$basic_string@DU?$char_traits@D@std@@V?$allocator@D@2@@std@@PBVOptions@4@@Z$7 1002cdbc f   main.obj
 0001:0002bdc5       __unwindfunclet$?readImage@ConditionPathsCallback@@UAE?AVReadResult@ReaderWriter@osgDB@@ABV?$basic_string@DU?$char_traits@D@std@@V?$allocator@D@2@@std@@PBVOptions@4@@Z$8 1002cdc5 f   main.obj
 0001:0002bde5       __ehhandler$?readImage@ConditionPathsCallback@@UAE?AVReadResult@ReaderWriter@osgDB@@ABV?$basic_string@DU?$char_traits@D@std@@V?$allocator@D@2@@std@@PBVOptions@4@@Z 1002cde5 f   main.obj
 0001:0002be10       __unwindfunclet$?GetTextureNameMapping@OptionsReader@@QAE?AV?$basic_string@DU?$char_traits@D@std@@V?$allocator@D@2@@std@@V23@@Z$0 1002ce10 f   main.obj
 0001:0002be19       __unwindfunclet$?GetTextureNameMapping@OptionsReader@@QAE?AV?$basic_string@DU?$char_traits@D@std@@V?$allocator@D@2@@std@@V23@@Z$2 1002ce19 f   main.obj
 0001:0002be22       __unwindfunclet$?GetTextureNameMapping@OptionsReader@@QAE?AV?$basic_string@DU?$char_traits@D@std@@V?$allocator@D@2@@std@@V23@@Z$4 1002ce22 f   main.obj
 0001:0002be3c       __ehhandler$?GetTextureNameMapping@OptionsReader@@QAE?AV?$basic_string@DU?$char_traits@D@std@@V?$allocator@D@2@@std@@V23@@Z 1002ce3c f   main.obj
 0001:0002be60       __unwindfunclet$?readImage@ImageCallback@@UAE?AVReadResult@ReaderWriter@osgDB@@ABV?$basic_string@DU?$char_traits@D@std@@V?$allocator@D@2@@std@@PBVOptions@4@@Z$0 1002ce60 f   main.obj
 0001:0002be69       __unwindfunclet$?readImage@ImageCallback@@UAE?AVReadResult@ReaderWriter@osgDB@@ABV?$basic_string@DU?$char_traits@D@std@@V?$allocator@D@2@@std@@PBVOptions@4@@Z$1 1002ce69 f   main.obj
 0001:0002be72       __unwindfunclet$?readImage@ImageCallback@@UAE?AVReadResult@ReaderWriter@osgDB@@ABV?$basic_string@DU?$char_traits@D@std@@V?$allocator@D@2@@std@@PBVOptions@4@@Z$2 1002ce72 f   main.obj
 0001:0002be8c       __ehhandler$?readImage@ImageCallback@@UAE?AVReadResult@ReaderWriter@osgDB@@ABV?$basic_string@DU?$char_traits@D@std@@V?$allocator@D@2@@std@@PBVOptions@4@@Z 1002ce8c f   main.obj
 0001:0002bec0       __unwindfunclet$?readImage@ManageMemoryCallback@@UAE?AVReadResult@ReaderWriter@osgDB@@ABV?$basic_string@DU?$char_traits@D@std@@V?$allocator@D@2@@std@@PBVOptions@4@@Z$0 1002cec0 f   main.obj
 0001:0002bec9       __unwindfunclet$?readImage@ManageMemoryCallback@@UAE?AVReadResult@ReaderWriter@osgDB@@ABV?$basic_string@DU?$char_traits@D@std@@V?$allocator@D@2@@std@@PBVOptions@4@@Z$1 1002cec9 f   main.obj
 0001:0002bee3       __ehhandler$?readImage@ManageMemoryCallback@@UAE?AVReadResult@ReaderWriter@osgDB@@ABV?$basic_string@DU?$char_traits@D@std@@V?$allocator@D@2@@std@@PBVOptions@4@@Z 1002cee3 f   main.obj
 0001:0002bf10       __unwindfunclet$?setFilepath@ConditionPathsCallback@@QAEXV?$basic_string@DU?$char_traits@D@std@@V?$allocator@D@2@@std@@@Z$0 1002cf10 f   main.obj
 0001:0002bf19       __ehhandler$?setFilepath@ConditionPathsCallback@@QAEXV?$basic_string@DU?$char_traits@D@std@@V?$allocator@D@2@@std@@@Z 1002cf19 f   main.obj
 0001:0002bf40       __unwindfunclet$??0ImageCallback@@QAE@XZ$0 1002cf40 f   main.obj
 0001:0002bf5d       __unwindfunclet$??0ImageCallback@@QAE@XZ$1 1002cf5d f   main.obj
 0001:0002bf68       __ehhandler$??0ImageCallback@@QAE@XZ 1002cf68 f   main.obj
 0001:0002bf90       __unwindfunclet$??1ManageMemoryCallback@@UAE@XZ$0 1002cf90 f   main.obj
 0001:0002bf9c       __unwindfunclet$??1ManageMemoryCallback@@UAE@XZ$1 1002cf9c f   main.obj
 0001:0002bfa7       __ehhandler$??1ManageMemoryCallback@@UAE@XZ 1002cfa7 f   main.obj
 0001:0002bfd0       __unwindfunclet$??1ImageCallback@@UAE@XZ$0 1002cfd0 f   main.obj
 0001:0002bfdb       __ehhandler$??1ImageCallback@@UAE@XZ 1002cfdb f   main.obj
 0001:0002c000       __unwindfunclet$??1OptionsReader@@QAE@XZ$0 1002d000 f   main.obj
 0001:0002c00c       __unwindfunclet$??1OptionsReader@@QAE@XZ$1 1002d00c f   main.obj
 0001:0002c018       __unwindfunclet$??1OptionsReader@@QAE@XZ$2 1002d018 f   main.obj
 0001:0002c024       __unwindfunclet$??1OptionsReader@@QAE@XZ$3 1002d024 f   main.obj
 0001:0002c030       __ehhandler$??1OptionsReader@@QAE@XZ 1002d030 f   main.obj
 0001:0002c050       __unwindfunclet$??0ManageMemoryCallback@@QAE@XZ$0 1002d050 f   main.obj
 0001:0002c06d       __unwindfunclet$??0ManageMemoryCallback@@QAE@XZ$1 1002d06d f   main.obj
 0001:0002c079       __ehhandler$??0ManageMemoryCallback@@QAE@XZ 1002d079 f   main.obj
 0001:0002c0a0       __unwindfunclet$??1ConditionPathsCallback@@UAE@XZ$0 1002d0a0 f   main.obj
 0001:0002c0ae       __unwindfunclet$??1ConditionPathsCallback@@UAE@XZ$1 1002d0ae f   main.obj
 0001:0002c0bc       __ehhandler$??1ConditionPathsCallback@@UAE@XZ 1002d0bc f   main.obj
 0001:0002c0e0       __unwindfunclet$??0OptionsReader@@QAE@ABV0@@Z$0 1002d0e0 f   main.obj
 0001:0002c0ec       __unwindfunclet$??0OptionsReader@@QAE@ABV0@@Z$1 1002d0ec f   main.obj
 0001:0002c0f8       __unwindfunclet$??0OptionsReader@@QAE@ABV0@@Z$2 1002d0f8 f   main.obj
 0001:0002c104       __unwindfunclet$??0OptionsReader@@QAE@ABV0@@Z$3 1002d104 f   main.obj
 0001:0002c110       __ehhandler$??0OptionsReader@@QAE@ABV0@@Z 1002d110 f   main.obj
 0001:0002c130       __unwindfunclet$??0ZipEntry@@QAE@PAUHZIP__@@H@Z$0 1002d130 f   main.obj
 0001:0002c13f       __unwindfunclet$??0ZipEntry@@QAE@PAUHZIP__@@H@Z$1 1002d13f f   main.obj
 0001:0002c14b       __unwindfunclet$??0ZipEntry@@QAE@PAUHZIP__@@H@Z$2 1002d14b f   main.obj
 0001:0002c157       __ehhandler$??0ZipEntry@@QAE@PAUHZIP__@@H@Z 1002d157 f   main.obj
 0001:0002c180       __unwindfunclet$?IsImageFile@ZipEntry@@QAE_NXZ$0 1002d180 f   main.obj
 0001:0002c189       __unwindfunclet$?IsImageFile@ZipEntry@@QAE_NXZ$1 1002d189 f   main.obj
 0001:0002c192       __unwindfunclet$?IsImageFile@ZipEntry@@QAE_NXZ$2 1002d192 f   main.obj
 0001:0002c19b       __unwindfunclet$?IsImageFile@ZipEntry@@QAE_NXZ$3 1002d19b f   main.obj
 0001:0002c1a7       __unwindfunclet$?IsImageFile@ZipEntry@@QAE_NXZ$4 1002d1a7 f   main.obj
 0001:0002c1b3       __unwindfunclet$?IsImageFile@ZipEntry@@QAE_NXZ$5 1002d1b3 f   main.obj
 0001:0002c1bf       __ehhandler$?IsImageFile@ZipEntry@@QAE_NXZ 1002d1bf f   main.obj
 0001:0002c1e0       __unwindfunclet$?AddTextureNameMapping@OptionsReader@@QAEXV?$basic_string@DU?$char_traits@D@std@@V?$allocator@D@2@@std@@0@Z$0 1002d1e0 f   main.obj
 0001:0002c1e9       __unwindfunclet$?AddTextureNameMapping@OptionsReader@@QAEXV?$basic_string@DU?$char_traits@D@std@@V?$allocator@D@2@@std@@0@Z$1 1002d1e9 f   main.obj
 0001:0002c1f2       __unwindfunclet$?AddTextureNameMapping@OptionsReader@@QAEXV?$basic_string@DU?$char_traits@D@std@@V?$allocator@D@2@@std@@0@Z$3 1002d1f2 f   main.obj
 0001:0002c1fb       __unwindfunclet$?AddTextureNameMapping@OptionsReader@@QAEXV?$basic_string@DU?$char_traits@D@std@@V?$allocator@D@2@@std@@0@Z$5 1002d1fb f   main.obj
 0001:0002c204       __ehhandler$?AddTextureNameMapping@OptionsReader@@QAEXV?$basic_string@DU?$char_traits@D@std@@V?$allocator@D@2@@std@@0@Z 1002d204 f   main.obj
 0001:0002c220       __unwindfunclet$??0OptionsReader@@QAE@PBD@Z$0 1002d220 f   main.obj
 0001:0002c22f       __unwindfunclet$??0OptionsReader@@QAE@PBD@Z$1 1002d22f f   main.obj
 0001:0002c23e       __unwindfunclet$??0OptionsReader@@QAE@PBD@Z$2 1002d23e f   main.obj
 0001:0002c24d       __unwindfunclet$??0OptionsReader@@QAE@PBD@Z$3 1002d24d f   main.obj
 0001:0002c25c       __unwindfunclet$??0OptionsReader@@QAE@PBD@Z$4 1002d25c f   main.obj
 0001:0002c26d       __unwindfunclet$??0OptionsReader@@QAE@PBD@Z$5 1002d26d f   main.obj
 0001:0002c275       __unwindfunclet$??0OptionsReader@@QAE@PBD@Z$6 1002d275 f   main.obj
 0001:0002c27e       __unwindfunclet$??0OptionsReader@@QAE@PBD@Z$7 1002d27e f   main.obj
 0001:0002c287       __unwindfunclet$??0OptionsReader@@QAE@PBD@Z$8 1002d287 f   main.obj
 0001:0002c293       __unwindfunclet$??0OptionsReader@@QAE@PBD@Z$9 1002d293 f   main.obj
 0001:0002c29f       __unwindfunclet$??0OptionsReader@@QAE@PBD@Z$10 1002d29f f   main.obj
 0001:0002c2ab       __unwindfunclet$??0OptionsReader@@QAE@PBD@Z$11 1002d2ab f   main.obj
 0001:0002c2b7       __unwindfunclet$??0OptionsReader@@QAE@PBD@Z$12 1002d2b7 f   main.obj
 0001:0002c2c3       __unwindfunclet$??0OptionsReader@@QAE@PBD@Z$13 1002d2c3 f   main.obj
 0001:0002c2cf       __unwindfunclet$??0OptionsReader@@QAE@PBD@Z$14 1002d2cf f   main.obj
 0001:0002c2db       __unwindfunclet$??0OptionsReader@@QAE@PBD@Z$15 1002d2db f   main.obj
 0001:0002c2e7       __unwindfunclet$??0OptionsReader@@QAE@PBD@Z$17 1002d2e7 f   main.obj
 0001:0002c2f3       __ehhandler$??0OptionsReader@@QAE@PBD@Z 1002d2f3 f   main.obj
 0001:0002c320       __unwindfunclet$?CheckReferencedTextureName@OptionsReader@@QAE_NV?$basic_string@DU?$char_traits@D@std@@V?$allocator@D@2@@std@@@Z$0 1002d320 f   main.obj
 0001:0002c329       __unwindfunclet$?CheckReferencedTextureName@OptionsReader@@QAE_NV?$basic_string@DU?$char_traits@D@std@@V?$allocator@D@2@@std@@@Z$1 1002d329 f   main.obj
 0001:0002c331       __unwindfunclet$?CheckReferencedTextureName@OptionsReader@@QAE_NV?$basic_string@DU?$char_traits@D@std@@V?$allocator@D@2@@std@@@Z$2 1002d331 f   main.obj
 0001:0002c33a       __unwindfunclet$?CheckReferencedTextureName@OptionsReader@@QAE_NV?$basic_string@DU?$char_traits@D@std@@V?$allocator@D@2@@std@@@Z$3 1002d33a f   main.obj
 0001:0002c343       __unwindfunclet$?CheckReferencedTextureName@OptionsReader@@QAE_NV?$basic_string@DU?$char_traits@D@std@@V?$allocator@D@2@@std@@@Z$4 1002d343 f   main.obj
 0001:0002c34c       __ehhandler$?CheckReferencedTextureName@OptionsReader@@QAE_NV?$basic_string@DU?$char_traits@D@std@@V?$allocator@D@2@@std@@@Z 1002d34c f   main.obj
 0001:0002c380       __unwindfunclet$??0ZipEntry@@QAE@PADHV?$basic_string@DU?$char_traits@D@std@@V?$allocator@D@2@@std@@@Z$0 1002d380 f   main.obj
 0001:0002c389       __unwindfunclet$??0ZipEntry@@QAE@PADHV?$basic_string@DU?$char_traits@D@std@@V?$allocator@D@2@@std@@@Z$1 1002d389 f   main.obj
 0001:0002c395       __ehhandler$??0ZipEntry@@QAE@PADHV?$basic_string@DU?$char_traits@D@std@@V?$allocator@D@2@@std@@@Z 1002d395 f   main.obj
 0001:0002c3b0       __unwindfunclet$?Is3DFile@ZipEntry@@QAE_NXZ$0 1002d3b0 f   main.obj
 0001:0002c3b9       __unwindfunclet$?Is3DFile@ZipEntry@@QAE_NXZ$1 1002d3b9 f   main.obj
 0001:0002c3c2       __unwindfunclet$?Is3DFile@ZipEntry@@QAE_NXZ$2 1002d3c2 f   main.obj
 0001:0002c3cb       __unwindfunclet$?Is3DFile@ZipEntry@@QAE_NXZ$3 1002d3cb f   main.obj
 0001:0002c3d7       __unwindfunclet$?Is3DFile@ZipEntry@@QAE_NXZ$4 1002d3d7 f   main.obj
 0001:0002c3e3       __unwindfunclet$?Is3DFile@ZipEntry@@QAE_NXZ$5 1002d3e3 f   main.obj
 0001:0002c3ef       __unwindfunclet$?Is3DFile@ZipEntry@@QAE_NXZ$6 1002d3ef f   main.obj
 0001:0002c3fb       __ehhandler$?Is3DFile@ZipEntry@@QAE_NXZ 1002d3fb f   main.obj
 0001:0002c420       __unwindfunclet$??0ConditionPathsCallback@@QAE@XZ$0 1002d420 f   main.obj
 0001:0002c440       __unwindfunclet$??0ConditionPathsCallback@@QAE@XZ$1 1002d440 f   main.obj
 0001:0002c44b       __unwindfunclet$??0ConditionPathsCallback@@QAE@XZ$2 1002d44b f   main.obj
 0001:0002c456       __ehhandler$??0ConditionPathsCallback@@QAE@XZ 1002d456 f   main.obj
 0001:0002c480       __unwindfunclet$??0FindTextureReferencePairs@@QAE@XZ$0 1002d480 f   main.obj
 0001:0002c49d       __unwindfunclet$??0FindTextureReferencePairs@@QAE@XZ$1 1002d49d f   main.obj
 0001:0002c4a9       __ehhandler$??0FindTextureReferencePairs@@QAE@XZ 1002d4a9 f   main.obj
 0001:0002c4d0       __unwindfunclet$?apply@FindTextureReferencePairs@@UAEXAAVGeode@osg@@@Z$0 1002d4d0 f   main.obj
 0001:0002c4d9       __unwindfunclet$?apply@FindTextureReferencePairs@@UAEXAAVGeode@osg@@@Z$1 1002d4d9 f   main.obj
 0001:0002c4e5       __unwindfunclet$?apply@FindTextureReferencePairs@@UAEXAAVGeode@osg@@@Z$2 1002d4e5 f   main.obj
 0001:0002c4ed       __unwindfunclet$?apply@FindTextureReferencePairs@@UAEXAAVGeode@osg@@@Z$3 1002d4ed f   main.obj
 0001:0002c4f8       __unwindfunclet$?apply@FindTextureReferencePairs@@UAEXAAVGeode@osg@@@Z$4 1002d4f8 f   main.obj
 0001:0002c503       __ehhandler$?apply@FindTextureReferencePairs@@UAEXAAVGeode@osg@@@Z 1002d503 f   main.obj
 0001:0002c530       __unwindfunclet$?GetTextureReference@FindTextureReferencePairs@@QAE?AU?$pair@V?$basic_string@DU?$char_traits@D@std@@V?$allocator@D@2@@std@@V12@@std@@PAVStateSet@osg@@@Z$0 1002d530 f   main.obj
 0001:0002c539       __unwindfunclet$?GetTextureReference@FindTextureReferencePairs@@QAE?AU?$pair@V?$basic_string@DU?$char_traits@D@std@@V?$allocator@D@2@@std@@V12@@std@@PAVStateSet@osg@@@Z$1 1002d539 f   main.obj
 0001:0002c552       __unwindfunclet$?GetTextureReference@FindTextureReferencePairs@@QAE?AU?$pair@V?$basic_string@DU?$char_traits@D@std@@V?$allocator@D@2@@std@@V12@@std@@PAVStateSet@osg@@@Z$2 1002d552 f   main.obj
 0001:0002c55b       __unwindfunclet$?GetTextureReference@FindTextureReferencePairs@@QAE?AU?$pair@V?$basic_string@DU?$char_traits@D@std@@V?$allocator@D@2@@std@@V12@@std@@PAVStateSet@osg@@@Z$3 1002d55b f   main.obj
 0001:0002c564       __ehhandler$?GetTextureReference@FindTextureReferencePairs@@QAE?AU?$pair@V?$basic_string@DU?$char_traits@D@std@@V?$allocator@D@2@@std@@V12@@std@@PAVStateSet@osg@@@Z 1002d564 f   main.obj
 0001:0002c580       __unwindfunclet$?GetTextureReference@FindTextureReferencePairs@@QAE?AU?$pair@V?$basic_string@DU?$char_traits@D@std@@V?$allocator@D@2@@std@@V12@@std@@PAVNode@osg@@@Z$0 1002d580 f   main.obj
 0001:0002c588       __unwindfunclet$?GetTextureReference@FindTextureReferencePairs@@QAE?AU?$pair@V?$basic_string@DU?$char_traits@D@std@@V?$allocator@D@2@@std@@V12@@std@@PAVNode@osg@@@Z$1 1002d588 f   main.obj
 0001:0002c5a7       __unwindfunclet$?GetTextureReference@FindTextureReferencePairs@@QAE?AU?$pair@V?$basic_string@DU?$char_traits@D@std@@V?$allocator@D@2@@std@@V12@@std@@PAVNode@osg@@@Z$2 1002d5a7 f   main.obj
 0001:0002c5b3       __unwindfunclet$?GetTextureReference@FindTextureReferencePairs@@QAE?AU?$pair@V?$basic_string@DU?$char_traits@D@std@@V?$allocator@D@2@@std@@V12@@std@@PAVNode@osg@@@Z$3 1002d5b3 f   main.obj
 0001:0002c5be       __unwindfunclet$?GetTextureReference@FindTextureReferencePairs@@QAE?AU?$pair@V?$basic_string@DU?$char_traits@D@std@@V?$allocator@D@2@@std@@V12@@std@@PAVNode@osg@@@Z$4 1002d5be f   main.obj
 0001:0002c5ca       __ehhandler$?GetTextureReference@FindTextureReferencePairs@@QAE?AU?$pair@V?$basic_string@DU?$char_traits@D@std@@V?$allocator@D@2@@std@@V12@@std@@PAVNode@osg@@@Z 1002d5ca f   main.obj
 0001:0002c600       __unwindfunclet$??1?$pair@V?$basic_string@DU?$char_traits@D@std@@V?$allocator@D@2@@std@@V12@@std@@QAE@XZ$0 1002d600 f   main.obj
 0001:0002c609       __ehhandler$??1?$pair@V?$basic_string@DU?$char_traits@D@std@@V?$allocator@D@2@@std@@V12@@std@@QAE@XZ 1002d609 f   main.obj
 0001:0002c630       __unwindfunclet$??0?$pair@V?$basic_string@DU?$char_traits@D@std@@V?$allocator@D@2@@std@@V12@@std@@QAE@ABU01@@Z$0 1002d630 f   main.obj
 0001:0002c639       __ehhandler$??0?$pair@V?$basic_string@DU?$char_traits@D@std@@V?$allocator@D@2@@std@@V12@@std@@QAE@ABU01@@Z 1002d639 f   main.obj
 0001:0002c660       __unwindfunclet$??1FindTextureReferencePairs@@UAE@XZ$0 1002d660 f   main.obj
 0001:0002c66c       __ehhandler$??1FindTextureReferencePairs@@UAE@XZ 1002d66c f   main.obj
 0001:0002c690       __unwindfunclet$??0?$vector@IV?$allocator@I@std@@@std@@QAE@XZ$0 1002d690 f   main.obj
 0001:0002c698       __ehhandler$??0?$vector@IV?$allocator@I@std@@@std@@QAE@XZ 1002d698 f   main.obj
 0001:0002c6c0       __unwindfunclet$??1?$vector@IV?$allocator@I@std@@@std@@QAE@XZ$0 1002d6c0 f   main.obj
 0001:0002c6c8       __ehhandler$??1?$vector@IV?$allocator@I@std@@@std@@QAE@XZ 1002d6c8 f   main.obj
 0001:0002c6f0       __unwindfunclet$??A?$map@V?$basic_string@DU?$char_traits@D@std@@V?$allocator@D@2@@std@@V12@U?$less@V?$basic_string@DU?$char_traits@D@std@@V?$allocator@D@2@@std@@@2@V?$allocator@U?$pair@$$CBV?$basic_string@DU?$char_traits@D@std@@V?$allocator@D@2@@std@@V12@@std@@@2@@std@@QAEAAV?$basic_string@DU?$char_traits@D@std@@V?$allocator@D@2@@1@ABV21@@Z$0 1002d6f0 f   main.obj
 0001:0002c6f9       __unwindfunclet$??A?$map@V?$basic_string@DU?$char_traits@D@std@@V?$allocator@D@2@@std@@V12@U?$less@V?$basic_string@DU?$char_traits@D@std@@V?$allocator@D@2@@std@@@2@V?$allocator@U?$pair@$$CBV?$basic_string@DU?$char_traits@D@std@@V?$allocator@D@2@@std@@V12@@std@@@2@@std@@QAEAAV?$basic_string@DU?$char_traits@D@std@@V?$allocator@D@2@@1@ABV21@@Z$1 1002d6f9 f   main.obj
 0001:0002c701       __ehhandler$??A?$map@V?$basic_string@DU?$char_traits@D@std@@V?$allocator@D@2@@std@@V12@U?$less@V?$basic_string@DU?$char_traits@D@std@@V?$allocator@D@2@@std@@@2@V?$allocator@U?$pair@$$CBV?$basic_string@DU?$char_traits@D@std@@V?$allocator@D@2@@std@@V12@@std@@@2@@std@@QAEAAV?$basic_string@DU?$char_traits@D@std@@V?$allocator@D@2@@1@ABV21@@Z 1002d701 f   main.obj
 0001:0002c720       __unwindfunclet$??0?$_Tree@V?$_Tmap_traits@V?$basic_string@DU?$char_traits@D@std@@V?$allocator@D@2@@std@@V12@U?$less@V?$basic_string@DU?$char_traits@D@std@@V?$allocator@D@2@@std@@@2@V?$allocator@U?$pair@$$CBV?$basic_string@DU?$char_traits@D@std@@V?$allocator@D@2@@std@@V12@@std@@@2@$0A@@std@@@std@@QAE@ABV01@@Z$2 1002d720 f   main.obj
 0001:0002c728       __ehhandler$??0?$_Tree@V?$_Tmap_traits@V?$basic_string@DU?$char_traits@D@std@@V?$allocator@D@2@@std@@V12@U?$less@V?$basic_string@DU?$char_traits@D@std@@V?$allocator@D@2@@std@@@2@V?$allocator@U?$pair@$$CBV?$basic_string@DU?$char_traits@D@std@@V?$allocator@D@2@@std@@V12@@std@@@2@$0A@@std@@@std@@QAE@ABV01@@Z 1002d728 f   main.obj
 0001:0002c750       __unwindfunclet$??1?$_Tree@V?$_Tmap_traits@V?$basic_string@DU?$char_traits@D@std@@V?$allocator@D@2@@std@@V12@U?$less@V?$basic_string@DU?$char_traits@D@std@@V?$allocator@D@2@@std@@@2@V?$allocator@U?$pair@$$CBV?$basic_string@DU?$char_traits@D@std@@V?$allocator@D@2@@std@@V12@@std@@@2@$0A@@std@@@std@@QAE@XZ$0 1002d750 f   main.obj
 0001:0002c758       __ehhandler$??1?$_Tree@V?$_Tmap_traits@V?$basic_string@DU?$char_traits@D@std@@V?$allocator@D@2@@std@@V12@U?$less@V?$basic_string@DU?$char_traits@D@std@@V?$allocator@D@2@@std@@@2@V?$allocator@U?$pair@$$CBV?$basic_string@DU?$char_traits@D@std@@V?$allocator@D@2@@std@@V12@@std@@@2@$0A@@std@@@std@@QAE@XZ 1002d758 f   main.obj
 0001:0002c780       __unwindfunclet$??0?$vector@HV?$allocator@H@std@@@std@@QAE@XZ$0 1002d780 f   main.obj
 0001:0002c788       __ehhandler$??0?$vector@HV?$allocator@H@std@@@std@@QAE@XZ 1002d788 f   main.obj
 0001:0002c7b0       __unwindfunclet$??0?$vector@HV?$allocator@H@std@@@std@@QAE@ABV01@@Z$2 1002d7b0 f   main.obj
 0001:0002c7b8       __ehhandler$??0?$vector@HV?$allocator@H@std@@@std@@QAE@ABV01@@Z 1002d7b8 f   main.obj
 0001:0002c7e0       __unwindfunclet$??1?$vector@HV?$allocator@H@std@@@std@@QAE@XZ$0 1002d7e0 f   main.obj
 0001:0002c7e8       __ehhandler$??1?$vector@HV?$allocator@H@std@@@std@@QAE@XZ 1002d7e8 f   main.obj
 0001:0002c810       __unwindfunclet$??1?$deque@V?$basic_string@DU?$char_traits@D@std@@V?$allocator@D@2@@std@@V?$allocator@V?$basic_string@DU?$char_traits@D@std@@V?$allocator@D@2@@std@@@2@@std@@QAE@XZ$0 1002d810 f   main.obj
 0001:0002c818       __ehhandler$??1?$deque@V?$basic_string@DU?$char_traits@D@std@@V?$allocator@D@2@@std@@V?$allocator@V?$basic_string@DU?$char_traits@D@std@@V?$allocator@D@2@@std@@@2@@std@@QAE@XZ 1002d818 f   main.obj
 0001:0002c840       __unwindfunclet$??0?$list@PAVGeometry@osg@@V?$allocator@PAVGeometry@osg@@@std@@@std@@QAE@XZ$0 1002d840 f   main.obj
 0001:0002c848       __ehhandler$??0?$list@PAVGeometry@osg@@V?$allocator@PAVGeometry@osg@@@std@@@std@@QAE@XZ 1002d848 f   main.obj
 0001:0002c870       __unwindfunclet$??1?$list@PAVGeometry@osg@@V?$allocator@PAVGeometry@osg@@@std@@@std@@QAE@XZ$0 1002d870 f   main.obj
 0001:0002c878       __ehhandler$??1?$list@PAVGeometry@osg@@V?$allocator@PAVGeometry@osg@@@std@@@std@@QAE@XZ 1002d878 f   main.obj
 0001:0002c8a0       __unwindfunclet$??0?$list@VReadResult@ReaderWriter@osgDB@@V?$allocator@VReadResult@ReaderWriter@osgDB@@@std@@@std@@QAE@XZ$0 1002d8a0 f   main.obj
 0001:0002c8a8       __ehhandler$??0?$list@VReadResult@ReaderWriter@osgDB@@V?$allocator@VReadResult@ReaderWriter@osgDB@@@std@@@std@@QAE@XZ 1002d8a8 f   main.obj
 0001:0002c8d0       __unwindfunclet$??1?$list@VReadResult@ReaderWriter@osgDB@@V?$allocator@VReadResult@ReaderWriter@osgDB@@@std@@@std@@QAE@XZ$0 1002d8d0 f   main.obj
 0001:0002c8d8       __ehhandler$??1?$list@VReadResult@ReaderWriter@osgDB@@V?$allocator@VReadResult@ReaderWriter@osgDB@@@std@@@std@@QAE@XZ 1002d8d8 f   main.obj
 0001:0002c900       __unwindfunclet$??0?$list@V?$basic_string@DU?$char_traits@D@std@@V?$allocator@D@2@@std@@V?$allocator@V?$basic_string@DU?$char_traits@D@std@@V?$allocator@D@2@@std@@@2@@std@@QAE@XZ$0 1002d900 f   main.obj
 0001:0002c908       __ehhandler$??0?$list@V?$basic_string@DU?$char_traits@D@std@@V?$allocator@D@2@@std@@V?$allocator@V?$basic_string@DU?$char_traits@D@std@@V?$allocator@D@2@@std@@@2@@std@@QAE@XZ 1002d908 f   main.obj
 0001:0002c930       __unwindfunclet$??1?$list@V?$basic_string@DU?$char_traits@D@std@@V?$allocator@D@2@@std@@V?$allocator@V?$basic_string@DU?$char_traits@D@std@@V?$allocator@D@2@@std@@@2@@std@@QAE@XZ$0 1002d930 f   main.obj
 0001:0002c938       __ehhandler$??1?$list@V?$basic_string@DU?$char_traits@D@std@@V?$allocator@D@2@@std@@V?$allocator@V?$basic_string@DU?$char_traits@D@std@@V?$allocator@D@2@@std@@@2@@std@@QAE@XZ 1002d938 f   main.obj
 0001:0002c960       __unwindfunclet$??0?$list@PAVZipEntry@@V?$allocator@PAVZipEntry@@@std@@@std@@QAE@XZ$0 1002d960 f   main.obj
 0001:0002c968       __ehhandler$??0?$list@PAVZipEntry@@V?$allocator@PAVZipEntry@@@std@@@std@@QAE@XZ 1002d968 f   main.obj
 0001:0002c990       __unwindfunclet$??1?$list@PAVZipEntry@@V?$allocator@PAVZipEntry@@@std@@@std@@QAE@XZ$0 1002d990 f   main.obj
 0001:0002c998       __ehhandler$??1?$list@PAVZipEntry@@V?$allocator@PAVZipEntry@@@std@@@std@@QAE@XZ 1002d998 f   main.obj
 0001:0002c9c0       __unwindfunclet$??0?$list@U?$pair@V?$basic_string@DU?$char_traits@D@std@@V?$allocator@D@2@@std@@V12@@std@@V?$allocator@U?$pair@V?$basic_string@DU?$char_traits@D@std@@V?$allocator@D@2@@std@@V12@@std@@@2@@std@@QAE@XZ$0 1002d9c0 f   main.obj
 0001:0002c9c8       __ehhandler$??0?$list@U?$pair@V?$basic_string@DU?$char_traits@D@std@@V?$allocator@D@2@@std@@V12@@std@@V?$allocator@U?$pair@V?$basic_string@DU?$char_traits@D@std@@V?$allocator@D@2@@std@@V12@@std@@@2@@std@@QAE@XZ 1002d9c8 f   main.obj
 0001:0002c9f0       __unwindfunclet$??1?$list@U?$pair@V?$basic_string@DU?$char_traits@D@std@@V?$allocator@D@2@@std@@V12@@std@@V?$allocator@U?$pair@V?$basic_string@DU?$char_traits@D@std@@V?$allocator@D@2@@std@@V12@@std@@@2@@std@@QAE@XZ$0 1002d9f0 f   main.obj
 0001:0002c9f8       __ehhandler$??1?$list@U?$pair@V?$basic_string@DU?$char_traits@D@std@@V?$allocator@D@2@@std@@V12@@std@@V?$allocator@U?$pair@V?$basic_string@DU?$char_traits@D@std@@V?$allocator@D@2@@std@@V12@@std@@@2@@std@@QAE@XZ 1002d9f8 f   main.obj
 0001:0002ca20       __unwindfunclet$??0?$pair@V?$basic_string@DU?$char_traits@D@std@@V?$allocator@D@2@@std@@V12@@std@@QAE@ABV?$basic_string@DU?$char_traits@D@std@@V?$allocator@D@2@@1@0@Z$0 1002da20 f   main.obj
 0001:0002ca29       __ehhandler$??0?$pair@V?$basic_string@DU?$char_traits@D@std@@V?$allocator@D@2@@std@@V12@@std@@QAE@ABV?$basic_string@DU?$char_traits@D@std@@V?$allocator@D@2@@1@0@Z 1002da29 f   main.obj
 0001:0002ca50       __unwindfunclet$??1?$pair@$$CBV?$basic_string@DU?$char_traits@D@std@@V?$allocator@D@2@@std@@V12@@std@@QAE@XZ$0 1002da50 f   main.obj
 0001:0002ca59       __ehhandler$??1?$pair@$$CBV?$basic_string@DU?$char_traits@D@std@@V?$allocator@D@2@@std@@V12@@std@@QAE@XZ 1002da59 f   main.obj
 0001:0002ca80       __unwindfunclet$??1?$_Container_base_aux_alloc_real@V?$allocator@I@std@@@std@@IAE@XZ$0 1002da80 f   main.obj
 0001:0002ca88       __ehhandler$??1?$_Container_base_aux_alloc_real@V?$allocator@I@std@@@std@@IAE@XZ 1002da88 f   main.obj
 0001:0002cab0       __unwindfunclet$??1?$_Container_base_aux_alloc_real@V?$allocator@V?$basic_string@DU?$char_traits@D@std@@V?$allocator@D@2@@std@@@std@@@std@@IAE@XZ$0 1002dab0 f   main.obj
 0001:0002cab8       __ehhandler$??1?$_Container_base_aux_alloc_real@V?$allocator@V?$basic_string@DU?$char_traits@D@std@@V?$allocator@D@2@@std@@@std@@@std@@IAE@XZ 1002dab8 f   main.obj
 0001:0002cae0       __unwindfunclet$??0?$_Tree@V?$_Tmap_traits@V?$basic_string@DU?$char_traits@D@std@@V?$allocator@D@2@@std@@V12@U?$less@V?$basic_string@DU?$char_traits@D@std@@V?$allocator@D@2@@std@@@2@V?$allocator@U?$pair@$$CBV?$basic_string@DU?$char_traits@D@std@@V?$allocator@D@2@@std@@V12@@std@@@2@$0A@@std@@@std@@QAE@ABU?$less@V?$basic_string@DU?$char_traits@D@std@@V?$allocator@D@2@@std@@@1@ABV?$allocator@U?$pair@$$CBV?$basic_string@DU?$char_traits@D@std@@V?$allocator@D@2@@std@@V12@@std@@@1@@Z$0 1002dae0 f   main.obj
 0001:0002cae8       __ehhandler$??0?$_Tree@V?$_Tmap_traits@V?$basic_string@DU?$char_traits@D@std@@V?$allocator@D@2@@std@@V12@U?$less@V?$basic_string@DU?$char_traits@D@std@@V?$allocator@D@2@@std@@@2@V?$allocator@U?$pair@$$CBV?$basic_string@DU?$char_traits@D@std@@V?$allocator@D@2@@std@@V12@@std@@@2@$0A@@std@@@std@@QAE@ABU?$less@V?$basic_string@DU?$char_traits@D@std@@V?$allocator@D@2@@std@@@1@ABV?$allocator@U?$pair@$$CBV?$basic_string@DU?$char_traits@D@std@@V?$allocator@D@2@@std@@V12@@std@@@1@@Z 1002dae8 f   main.obj
 0001:0002cb10       __unwindfunclet$??1?$_Container_base_aux_alloc_real@V?$allocator@U?$pair@$$CBV?$basic_string@DU?$char_traits@D@std@@V?$allocator@D@2@@std@@V12@@std@@@std@@@std@@IAE@XZ$0 1002db10 f   main.obj
 0001:0002cb18       __ehhandler$??1?$_Container_base_aux_alloc_real@V?$allocator@U?$pair@$$CBV?$basic_string@DU?$char_traits@D@std@@V?$allocator@D@2@@std@@V12@@std@@@std@@@std@@IAE@XZ 1002db18 f   main.obj
 0001:0002cb40       __unwindfunclet$??1?$_Container_base_aux_alloc_real@V?$allocator@H@std@@@std@@IAE@XZ$0 1002db40 f   main.obj
 0001:0002cb48       __ehhandler$??1?$_Container_base_aux_alloc_real@V?$allocator@H@std@@@std@@IAE@XZ 1002db48 f   main.obj
 0001:0002cb70       __unwindfunclet$??0?$pair@$$CBV?$basic_string@DU?$char_traits@D@std@@V?$allocator@D@2@@std@@V12@@std@@QAE@ABV?$basic_string@DU?$char_traits@D@std@@V?$allocator@D@2@@1@0@Z$0 1002db70 f   main.obj
 0001:0002cb79       __ehhandler$??0?$pair@$$CBV?$basic_string@DU?$char_traits@D@std@@V?$allocator@D@2@@std@@V12@@std@@QAE@ABV?$basic_string@DU?$char_traits@D@std@@V?$allocator@D@2@@1@0@Z 1002db79 f   main.obj
 0001:0002cba0       __unwindfunclet$??1?$_Container_base_aux_alloc_real@V?$allocator@PAVGeometry@osg@@@std@@@std@@IAE@XZ$0 1002dba0 f   main.obj
 0001:0002cba8       __ehhandler$??1?$_Container_base_aux_alloc_real@V?$allocator@PAVGeometry@osg@@@std@@@std@@IAE@XZ 1002dba8 f   main.obj
 0001:0002cbd0       __ehhandler$?_Buynode@?$list@PAVGeometry@osg@@V?$allocator@PAVGeometry@osg@@@std@@@std@@IAEPAU_Node@?$_List_nod@PAVGeometry@osg@@V?$allocator@PAVGeometry@osg@@@std@@@2@XZ 1002dbd0 f   main.obj
 0001:0002cbf0       __ehhandler$?_Buynode@?$list@VReadResult@ReaderWriter@osgDB@@V?$allocator@VReadResult@ReaderWriter@osgDB@@@std@@@std@@IAEPAU_Node@?$_List_nod@VReadResult@ReaderWriter@osgDB@@V?$allocator@VReadResult@ReaderWriter@osgDB@@@std@@@2@XZ 1002dbf0 f   main.obj
 0001:0002cc10       __unwindfunclet$??1?$_Container_base_aux_alloc_real@V?$allocator@VReadResult@ReaderWriter@osgDB@@@std@@@std@@IAE@XZ$0 1002dc10 f   main.obj
 0001:0002cc18       __ehhandler$??1?$_Container_base_aux_alloc_real@V?$allocator@VReadResult@ReaderWriter@osgDB@@@std@@@std@@IAE@XZ 1002dc18 f   main.obj
 0001:0002cc40       __ehhandler$?_Buynode@?$list@V?$basic_string@DU?$char_traits@D@std@@V?$allocator@D@2@@std@@V?$allocator@V?$basic_string@DU?$char_traits@D@std@@V?$allocator@D@2@@std@@@2@@std@@IAEPAU_Node@?$_List_nod@V?$basic_string@DU?$char_traits@D@std@@V?$allocator@D@2@@std@@V?$allocator@V?$basic_string@DU?$char_traits@D@std@@V?$allocator@D@2@@std@@@2@@2@XZ 1002dc40 f   main.obj
 0001:0002cc60       __ehhandler$?_Buynode@?$list@PAVZipEntry@@V?$allocator@PAVZipEntry@@@std@@@std@@IAEPAU_Node@?$_List_nod@PAVZipEntry@@V?$allocator@PAVZipEntry@@@std@@@2@XZ 1002dc60 f   main.obj
 0001:0002cc80       __unwindfunclet$??1?$_Container_base_aux_alloc_real@V?$allocator@PAVZipEntry@@@std@@@std@@IAE@XZ$0 1002dc80 f   main.obj
 0001:0002cc88       __ehhandler$??1?$_Container_base_aux_alloc_real@V?$allocator@PAVZipEntry@@@std@@@std@@IAE@XZ 1002dc88 f   main.obj
 0001:0002ccb0       __ehhandler$?_Buynode@?$list@U?$pair@V?$basic_string@DU?$char_traits@D@std@@V?$allocator@D@2@@std@@V12@@std@@V?$allocator@U?$pair@V?$basic_string@DU?$char_traits@D@std@@V?$allocator@D@2@@std@@V12@@std@@@2@@std@@IAEPAU_Node@?$_List_nod@U?$pair@V?$basic_string@DU?$char_traits@D@std@@V?$allocator@D@2@@std@@V12@@std@@V?$allocator@U?$pair@V?$basic_string@DU?$char_traits@D@std@@V?$allocator@D@2@@std@@V12@@std@@@2@@2@XZ 1002dcb0 f   main.obj
 0001:0002ccd0       __unwindfunclet$??1?$_Container_base_aux_alloc_real@V?$allocator@U?$pair@V?$basic_string@DU?$char_traits@D@std@@V?$allocator@D@2@@std@@V12@@std@@@std@@@std@@IAE@XZ$0 1002dcd0 f   main.obj
 0001:0002ccd8       __ehhandler$??1?$_Container_base_aux_alloc_real@V?$allocator@U?$pair@V?$basic_string@DU?$char_traits@D@std@@V?$allocator@D@2@@std@@V12@@std@@@std@@@std@@IAE@XZ 1002dcd8 f   main.obj
 0001:0002cd00       __ehhandler$?_Insert_n@?$vector@IV?$allocator@I@std@@@std@@IAEXV?$_Vector_const_iterator@IV?$allocator@I@std@@@2@IABI@Z 1002dd00 f   main.obj
 0001:0002cd20       __unwindfunclet$?_Xlen@?$vector@IV?$allocator@I@std@@@std@@KAXXZ$0 1002dd20 f   main.obj
 0001:0002cd29       __ehhandler$?_Xlen@?$vector@IV?$allocator@I@std@@@std@@KAXXZ 1002dd29 f   main.obj
 0001:0002cd50       __unwindfunclet$??0logic_error@std@@QAE@ABV?$basic_string@DU?$char_traits@D@std@@V?$allocator@D@2@@1@@Z$0 1002dd50 f   main.obj
 0001:0002cd59       __ehhandler$??0logic_error@std@@QAE@ABV?$basic_string@DU?$char_traits@D@std@@V?$allocator@D@2@@1@@Z 1002dd59 f   main.obj
 0001:0002cd80       __unwindfunclet$??0logic_error@std@@QAE@ABV01@@Z$0 1002dd80 f   main.obj
 0001:0002cd89       __ehhandler$??0logic_error@std@@QAE@ABV01@@Z 1002dd89 f   main.obj
 0001:0002cdb0       __unwindfunclet$??0?$_Container_base_aux_alloc_real@V?$allocator@I@std@@@std@@IAE@V?$allocator@I@1@@Z$0 1002ddb0 f   main.obj
 0001:0002cdb8       __unwindfunclet$??0?$_Container_base_aux_alloc_real@V?$allocator@I@std@@@std@@IAE@V?$allocator@I@1@@Z$1 1002ddb8 f   main.obj
 0001:0002cdc9       __ehhandler$??0?$_Container_base_aux_alloc_real@V?$allocator@I@std@@@std@@IAE@V?$allocator@I@1@@Z 1002ddc9 f   main.obj
 0001:0002cdf0       __unwindfunclet$?erase@?$_Tree@V?$_Tmap_traits@V?$basic_string@DU?$char_traits@D@std@@V?$allocator@D@2@@std@@V12@U?$less@V?$basic_string@DU?$char_traits@D@std@@V?$allocator@D@2@@std@@@2@V?$allocator@U?$pair@$$CBV?$basic_string@DU?$char_traits@D@std@@V?$allocator@D@2@@std@@V12@@std@@@2@$0A@@std@@@std@@QAE?AViterator@12@Vconst_iterator@12@@Z$0 1002ddf0 f   main.obj
 0001:0002cdf9       __ehhandler$?erase@?$_Tree@V?$_Tmap_traits@V?$basic_string@DU?$char_traits@D@std@@V?$allocator@D@2@@std@@V12@U?$less@V?$basic_string@DU?$char_traits@D@std@@V?$allocator@D@2@@std@@@2@V?$allocator@U?$pair@$$CBV?$basic_string@DU?$char_traits@D@std@@V?$allocator@D@2@@std@@V12@@std@@@2@$0A@@std@@@std@@QAE?AViterator@12@Vconst_iterator@12@@Z 1002ddf9 f   main.obj
 0001:0002ce20       __ehhandler$?_Copy@?$_Tree@V?$_Tmap_traits@V?$basic_string@DU?$char_traits@D@std@@V?$allocator@D@2@@std@@V12@U?$less@V?$basic_string@DU?$char_traits@D@std@@V?$allocator@D@2@@std@@@2@V?$allocator@U?$pair@$$CBV?$basic_string@DU?$char_traits@D@std@@V?$allocator@D@2@@std@@V12@@std@@@2@$0A@@std@@@std@@IAEPAU_Node@?$_Tree_nod@V?$_Tmap_traits@V?$basic_string@DU?$char_traits@D@std@@V?$allocator@D@2@@std@@V12@U?$less@V?$basic_string@DU?$char_traits@D@std@@V?$allocator@D@2@@std@@@2@V?$allocator@U?$pair@$$CBV?$basic_string@DU?$char_traits@D@std@@V?$allocator@D@2@@std@@V12@@std@@@2@$0A@@std@@@2@PAU342@0@Z 1002de20 f   main.obj
 0001:0002ce40       __unwindfunclet$?_Insert@?$_Tree@V?$_Tmap_traits@V?$basic_string@DU?$char_traits@D@std@@V?$allocator@D@2@@std@@V12@U?$less@V?$basic_string@DU?$char_traits@D@std@@V?$allocator@D@2@@std@@@2@V?$allocator@U?$pair@$$CBV?$basic_string@DU?$char_traits@D@std@@V?$allocator@D@2@@std@@V12@@std@@@2@$0A@@std@@@std@@IAE?AViterator@12@_NPAU_Node@?$_Tree_nod@V?$_Tmap_traits@V?$basic_string@DU?$char_traits@D@std@@V?$allocator@D@2@@std@@V12@U?$less@V?$basic_string@DU?$char_traits@D@std@@V?$allocator@D@2@@std@@@2@V?$allocator@U?$pair@$$CBV?$basic_string@DU?$char_traits@D@std@@V?$allocator@D@2@@std@@V12@@std@@@2@$0A@@std@@@2@ABU?$pair@$$CBV?$basic_string@DU?$char_traits@D@std@@V?$allocator@D@2@@std@@V12@@2@@Z$0 1002de40 f   main.obj
 0001:0002ce49       __ehhandler$?_Insert@?$_Tree@V?$_Tmap_traits@V?$basic_string@DU?$char_traits@D@std@@V?$allocator@D@2@@std@@V12@U?$less@V?$basic_string@DU?$char_traits@D@std@@V?$allocator@D@2@@std@@@2@V?$allocator@U?$pair@$$CBV?$basic_string@DU?$char_traits@D@std@@V?$allocator@D@2@@std@@V12@@std@@@2@$0A@@std@@@std@@IAE?AViterator@12@_NPAU_Node@?$_Tree_nod@V?$_Tmap_traits@V?$basic_string@DU?$char_traits@D@std@@V?$allocator@D@2@@std@@V12@U?$less@V?$basic_string@DU?$char_traits@D@std@@V?$allocator@D@2@@std@@@2@V?$allocator@U?$pair@$$CBV?$basic_string@DU?$char_traits@D@std@@V?$allocator@D@2@@std@@V12@@std@@@2@$0A@@std@@@2@ABU?$pair@$$CBV?$basic_string@DU?$char_traits@D@std@@V?$allocator@D@2@@std@@V12@@2@@Z 1002de49 f   main.obj
 0001:0002ce70       __ehhandler$?_Buynode@?$_Tree@V?$_Tmap_traits@V?$basic_string@DU?$char_traits@D@std@@V?$allocator@D@2@@std@@V12@U?$less@V?$basic_string@DU?$char_traits@D@std@@V?$allocator@D@2@@std@@@2@V?$allocator@U?$pair@$$CBV?$basic_string@DU?$char_traits@D@std@@V?$allocator@D@2@@std@@V12@@std@@@2@$0A@@std@@@std@@IAEPAU_Node@?$_Tree_nod@V?$_Tmap_traits@V?$basic_string@DU?$char_traits@D@std@@V?$allocator@D@2@@std@@V12@U?$less@V?$basic_string@DU?$char_traits@D@std@@V?$allocator@D@2@@std@@@2@V?$allocator@U?$pair@$$CBV?$basic_string@DU?$char_traits@D@std@@V?$allocator@D@2@@std@@V12@@std@@@2@$0A@@std@@@2@XZ 1002de70 f   main.obj
 0001:0002ce90       __ehhandler$?_Insert_n@?$vector@HV?$allocator@H@std@@@std@@IAEXV?$_Vector_const_iterator@HV?$allocator@H@std@@@2@IABH@Z 1002de90 f   main.obj
 0001:0002ceb0       __unwindfunclet$?_Xlen@?$vector@HV?$allocator@H@std@@@std@@KAXXZ$0 1002deb0 f   main.obj
 0001:0002ceb9       __ehhandler$?_Xlen@?$vector@HV?$allocator@H@std@@@std@@KAXXZ 1002deb9 f   main.obj
 0001:0002cee0       __unwindfunclet$??0?$_Container_base_aux_alloc_real@V?$allocator@H@std@@@std@@IAE@V?$allocator@H@1@@Z$0 1002dee0 f   main.obj
 0001:0002cee8       __unwindfunclet$??0?$_Container_base_aux_alloc_real@V?$allocator@H@std@@@std@@IAE@V?$allocator@H@1@@Z$1 1002dee8 f   main.obj
 0001:0002cef9       __ehhandler$??0?$_Container_base_aux_alloc_real@V?$allocator@H@std@@@std@@IAE@V?$allocator@H@1@@Z 1002def9 f   main.obj
 0001:0002cf20       __unwindfunclet$?_Xlen@?$deque@V?$basic_string@DU?$char_traits@D@std@@V?$allocator@D@2@@std@@V?$allocator@V?$basic_string@DU?$char_traits@D@std@@V?$allocator@D@2@@std@@@2@@std@@KAXXZ$0 1002df20 f   main.obj
 0001:0002cf29       __ehhandler$?_Xlen@?$deque@V?$basic_string@DU?$char_traits@D@std@@V?$allocator@D@2@@std@@V?$allocator@V?$basic_string@DU?$char_traits@D@std@@V?$allocator@D@2@@std@@@2@@std@@KAXXZ 1002df29 f   main.obj
 0001:0002cf50       __unwindfunclet$??0?$_Container_base_aux_alloc_real@V?$allocator@V?$basic_string@DU?$char_traits@D@std@@V?$allocator@D@2@@std@@@std@@@std@@IAE@V?$allocator@V?$basic_string@DU?$char_traits@D@std@@V?$allocator@D@2@@std@@@1@@Z$0 1002df50 f   main.obj
 0001:0002cf58       __unwindfunclet$??0?$_Container_base_aux_alloc_real@V?$allocator@V?$basic_string@DU?$char_traits@D@std@@V?$allocator@D@2@@std@@@std@@@std@@IAE@V?$allocator@V?$basic_string@DU?$char_traits@D@std@@V?$allocator@D@2@@std@@@1@@Z$1 1002df58 f   main.obj
 0001:0002cf69       __ehhandler$??0?$_Container_base_aux_alloc_real@V?$allocator@V?$basic_string@DU?$char_traits@D@std@@V?$allocator@D@2@@std@@@std@@@std@@IAE@V?$allocator@V?$basic_string@DU?$char_traits@D@std@@V?$allocator@D@2@@std@@@1@@Z 1002df69 f   main.obj
 0001:0002cf90       __ehhandler$?_Buynode@?$list@PAVGeometry@osg@@V?$allocator@PAVGeometry@osg@@@std@@@std@@IAEPAU_Node@?$_List_nod@PAVGeometry@osg@@V?$allocator@PAVGeometry@osg@@@std@@@2@PAU342@0ABQAVGeometry@osg@@@Z 1002df90 f   main.obj
 0001:0002cfb0       __unwindfunclet$?_Incsize@?$list@PAVGeometry@osg@@V?$allocator@PAVGeometry@osg@@@std@@@std@@IAEXI@Z$0 1002dfb0 f   main.obj
 0001:0002cfb9       __ehhandler$?_Incsize@?$list@PAVGeometry@osg@@V?$allocator@PAVGeometry@osg@@@std@@@std@@IAEXI@Z 1002dfb9 f   main.obj
 0001:0002cfe0       __ehhandler$?_Buynode@?$list@VReadResult@ReaderWriter@osgDB@@V?$allocator@VReadResult@ReaderWriter@osgDB@@@std@@@std@@IAEPAU_Node@?$_List_nod@VReadResult@ReaderWriter@osgDB@@V?$allocator@VReadResult@ReaderWriter@osgDB@@@std@@@2@PAU342@0ABVReadResult@ReaderWriter@osgDB@@@Z 1002dfe0 f   main.obj
 0001:0002d000       __unwindfunclet$?_Incsize@?$list@VReadResult@ReaderWriter@osgDB@@V?$allocator@VReadResult@ReaderWriter@osgDB@@@std@@@std@@IAEXI@Z$0 1002e000 f   main.obj
 0001:0002d009       __ehhandler$?_Incsize@?$list@VReadResult@ReaderWriter@osgDB@@V?$allocator@VReadResult@ReaderWriter@osgDB@@@std@@@std@@IAEXI@Z 1002e009 f   main.obj
 0001:0002d030       __ehhandler$?_Buynode@?$list@V?$basic_string@DU?$char_traits@D@std@@V?$allocator@D@2@@std@@V?$allocator@V?$basic_string@DU?$char_traits@D@std@@V?$allocator@D@2@@std@@@2@@std@@IAEPAU_Node@?$_List_nod@V?$basic_string@DU?$char_traits@D@std@@V?$allocator@D@2@@std@@V?$allocator@V?$basic_string@DU?$char_traits@D@std@@V?$allocator@D@2@@std@@@2@@2@PAU342@0ABV?$basic_string@DU?$char_traits@D@std@@V?$allocator@D@2@@2@@Z 1002e030 f   main.obj
 0001:0002d050       __unwindfunclet$?_Incsize@?$list@V?$basic_string@DU?$char_traits@D@std@@V?$allocator@D@2@@std@@V?$allocator@V?$basic_string@DU?$char_traits@D@std@@V?$allocator@D@2@@std@@@2@@std@@IAEXI@Z$0 1002e050 f   main.obj
 0001:0002d059       __ehhandler$?_Incsize@?$list@V?$basic_string@DU?$char_traits@D@std@@V?$allocator@D@2@@std@@V?$allocator@V?$basic_string@DU?$char_traits@D@std@@V?$allocator@D@2@@std@@@2@@std@@IAEXI@Z 1002e059 f   main.obj
 0001:0002d080       __ehhandler$?_Buynode@?$list@PAVZipEntry@@V?$allocator@PAVZipEntry@@@std@@@std@@IAEPAU_Node@?$_List_nod@PAVZipEntry@@V?$allocator@PAVZipEntry@@@std@@@2@PAU342@0ABQAVZipEntry@@@Z 1002e080 f   main.obj
 0001:0002d0a0       __unwindfunclet$?_Incsize@?$list@PAVZipEntry@@V?$allocator@PAVZipEntry@@@std@@@std@@IAEXI@Z$0 1002e0a0 f   main.obj
 0001:0002d0a9       __ehhandler$?_Incsize@?$list@PAVZipEntry@@V?$allocator@PAVZipEntry@@@std@@@std@@IAEXI@Z 1002e0a9 f   main.obj
 0001:0002d0d0       __ehhandler$?_Buynode@?$list@U?$pair@V?$basic_string@DU?$char_traits@D@std@@V?$allocator@D@2@@std@@V12@@std@@V?$allocator@U?$pair@V?$basic_string@DU?$char_traits@D@std@@V?$allocator@D@2@@std@@V12@@std@@@2@@std@@IAEPAU_Node@?$_List_nod@U?$pair@V?$basic_string@DU?$char_traits@D@std@@V?$allocator@D@2@@std@@V12@@std@@V?$allocator@U?$pair@V?$basic_string@DU?$char_traits@D@std@@V?$allocator@D@2@@std@@V12@@std@@@2@@2@PAU342@0ABU?$pair@V?$basic_string@DU?$char_traits@D@std@@V?$allocator@D@2@@std@@V12@@2@@Z 1002e0d0 f   main.obj
 0001:0002d0f0       __unwindfunclet$?_Incsize@?$list@U?$pair@V?$basic_string@DU?$char_traits@D@std@@V?$allocator@D@2@@std@@V12@@std@@V?$allocator@U?$pair@V?$basic_string@DU?$char_traits@D@std@@V?$allocator@D@2@@std@@V12@@std@@@2@@std@@IAEXI@Z$0 1002e0f0 f   main.obj
 0001:0002d0f9       __ehhandler$?_Incsize@?$list@U?$pair@V?$basic_string@DU?$char_traits@D@std@@V?$allocator@D@2@@std@@V12@@std@@V?$allocator@U?$pair@V?$basic_string@DU?$char_traits@D@std@@V?$allocator@D@2@@std@@V12@@std@@@2@@std@@IAEXI@Z 1002e0f9 f   main.obj
 0001:0002d120       __unwindfunclet$?_Buynode@?$_Tree@V?$_Tmap_traits@V?$basic_string@DU?$char_traits@D@std@@V?$allocator@D@2@@std@@V12@U?$less@V?$basic_string@DU?$char_traits@D@std@@V?$allocator@D@2@@std@@@2@V?$allocator@U?$pair@$$CBV?$basic_string@DU?$char_traits@D@std@@V?$allocator@D@2@@std@@V12@@std@@@2@$0A@@std@@@std@@IAEPAU_Node@?$_Tree_nod@V?$_Tmap_traits@V?$basic_string@DU?$char_traits@D@std@@V?$allocator@D@2@@std@@V12@U?$less@V?$basic_string@DU?$char_traits@D@std@@V?$allocator@D@2@@std@@@2@V?$allocator@U?$pair@$$CBV?$basic_string@DU?$char_traits@D@std@@V?$allocator@D@2@@std@@V12@@std@@@2@$0A@@std@@@2@PAU342@00ABU?$pair@$$CBV?$basic_string@DU?$char_traits@D@std@@V?$allocator@D@2@@std@@V12@@2@D@Z$2 1002e120 f   main.obj
 0001:0002d131       __ehhandler$?_Buynode@?$_Tree@V?$_Tmap_traits@V?$basic_string@DU?$char_traits@D@std@@V?$allocator@D@2@@std@@V12@U?$less@V?$basic_string@DU?$char_traits@D@std@@V?$allocator@D@2@@std@@@2@V?$allocator@U?$pair@$$CBV?$basic_string@DU?$char_traits@D@std@@V?$allocator@D@2@@std@@V12@@std@@@2@$0A@@std@@@std@@IAEPAU_Node@?$_Tree_nod@V?$_Tmap_traits@V?$basic_string@DU?$char_traits@D@std@@V?$allocator@D@2@@std@@V12@U?$less@V?$basic_string@DU?$char_traits@D@std@@V?$allocator@D@2@@std@@@2@V?$allocator@U?$pair@$$CBV?$basic_string@DU?$char_traits@D@std@@V?$allocator@D@2@@std@@V12@@std@@@2@$0A@@std@@@2@PAU342@00ABU?$pair@$$CBV?$basic_string@DU?$char_traits@D@std@@V?$allocator@D@2@@std@@V12@@2@D@Z 1002e131 f   main.obj
 0001:0002d150       __unwindfunclet$??0?$_Container_base_aux_alloc_real@V?$allocator@PAVGeometry@osg@@@std@@@std@@IAE@V?$allocator@PAVGeometry@osg@@@1@@Z$0 1002e150 f   main.obj
 0001:0002d158       __unwindfunclet$??0?$_Container_base_aux_alloc_real@V?$allocator@PAVGeometry@osg@@@std@@@std@@IAE@V?$allocator@PAVGeometry@osg@@@1@@Z$1 1002e158 f   main.obj
 0001:0002d169       __ehhandler$??0?$_Container_base_aux_alloc_real@V?$allocator@PAVGeometry@osg@@@std@@@std@@IAE@V?$allocator@PAVGeometry@osg@@@1@@Z 1002e169 f   main.obj
 0001:0002d190       __unwindfunclet$??0?$_Container_base_aux_alloc_real@V?$allocator@VReadResult@ReaderWriter@osgDB@@@std@@@std@@IAE@V?$allocator@VReadResult@ReaderWriter@osgDB@@@1@@Z$0 1002e190 f   main.obj
 0001:0002d198       __unwindfunclet$??0?$_Container_base_aux_alloc_real@V?$allocator@VReadResult@ReaderWriter@osgDB@@@std@@@std@@IAE@V?$allocator@VReadResult@ReaderWriter@osgDB@@@1@@Z$1 1002e198 f   main.obj
 0001:0002d1a9       __ehhandler$??0?$_Container_base_aux_alloc_real@V?$allocator@VReadResult@ReaderWriter@osgDB@@@std@@@std@@IAE@V?$allocator@VReadResult@ReaderWriter@osgDB@@@1@@Z 1002e1a9 f   main.obj
 0001:0002d1d0       __unwindfunclet$??0?$_Container_base_aux_alloc_real@V?$allocator@PAVZipEntry@@@std@@@std@@IAE@V?$allocator@PAVZipEntry@@@1@@Z$0 1002e1d0 f   main.obj
 0001:0002d1d8       __unwindfunclet$??0?$_Container_base_aux_alloc_real@V?$allocator@PAVZipEntry@@@std@@@std@@IAE@V?$allocator@PAVZipEntry@@@1@@Z$1 1002e1d8 f   main.obj
 0001:0002d1e9       __ehhandler$??0?$_Container_base_aux_alloc_real@V?$allocator@PAVZipEntry@@@std@@@std@@IAE@V?$allocator@PAVZipEntry@@@1@@Z 1002e1e9 f   main.obj
 0001:0002d210       __unwindfunclet$??0?$_Container_base_aux_alloc_real@V?$allocator@U?$pair@V?$basic_string@DU?$char_traits@D@std@@V?$allocator@D@2@@std@@V12@@std@@@std@@@std@@IAE@V?$allocator@U?$pair@V?$basic_string@DU?$char_traits@D@std@@V?$allocator@D@2@@std@@V12@@std@@@1@@Z$0 1002e210 f   main.obj
 0001:0002d218       __unwindfunclet$??0?$_Container_base_aux_alloc_real@V?$allocator@U?$pair@V?$basic_string@DU?$char_traits@D@std@@V?$allocator@D@2@@std@@V12@@std@@@std@@@std@@IAE@V?$allocator@U?$pair@V?$basic_string@DU?$char_traits@D@std@@V?$allocator@D@2@@std@@V12@@std@@@1@@Z$1 1002e218 f   main.obj
 0001:0002d229       __ehhandler$??0?$_Container_base_aux_alloc_real@V?$allocator@U?$pair@V?$basic_string@DU?$char_traits@D@std@@V?$allocator@D@2@@std@@V12@@std@@@std@@@std@@IAE@V?$allocator@U?$pair@V?$basic_string@DU?$char_traits@D@std@@V?$allocator@D@2@@std@@V12@@std@@@1@@Z 1002e229 f   main.obj
 0001:0002d250       __unwindfunclet$??0?$pair@$$CBV?$basic_string@DU?$char_traits@D@std@@V?$allocator@D@2@@std@@V12@@std@@QAE@ABU01@@Z$0 1002e250 f   main.obj
 0001:0002d259       __ehhandler$??0?$pair@$$CBV?$basic_string@DU?$char_traits@D@std@@V?$allocator@D@2@@std@@V12@@std@@QAE@ABU01@@Z 1002e259 f   main.obj
 0001:0002d280       __unwindfunclet$??0?$_Container_base_aux_alloc_real@V?$allocator@U?$pair@$$CBV?$basic_string@DU?$char_traits@D@std@@V?$allocator@D@2@@std@@V12@@std@@@std@@@std@@IAE@V?$allocator@U?$pair@$$CBV?$basic_string@DU?$char_traits@D@std@@V?$allocator@D@2@@std@@V12@@std@@@1@@Z$0 1002e280 f   main.obj
 0001:0002d288       __unwindfunclet$??0?$_Container_base_aux_alloc_real@V?$allocator@U?$pair@$$CBV?$basic_string@DU?$char_traits@D@std@@V?$allocator@D@2@@std@@V12@@std@@@std@@@std@@IAE@V?$allocator@U?$pair@$$CBV?$basic_string@DU?$char_traits@D@std@@V?$allocator@D@2@@std@@V12@@std@@@1@@Z$1 1002e288 f   main.obj
 0001:0002d299       __ehhandler$??0?$_Container_base_aux_alloc_real@V?$allocator@U?$pair@$$CBV?$basic_string@DU?$char_traits@D@std@@V?$allocator@D@2@@std@@V12@@std@@@std@@@std@@IAE@V?$allocator@U?$pair@$$CBV?$basic_string@DU?$char_traits@D@std@@V?$allocator@D@2@@std@@V12@@std@@@1@@Z 1002e299 f   main.obj
 0001:0002d2c0       __unwindfunclet$??$?6U?$char_traits@D@std@@@std@@YAAAV?$basic_ostream@DU?$char_traits@D@std@@@0@AAV10@PBD@Z$2 1002e2c0 f   main.obj
 0001:0002d2c8       __ehhandler$??$?6U?$char_traits@D@std@@@std@@YAAAV?$basic_ostream@DU?$char_traits@D@std@@@0@AAV10@PBD@Z 1002e2c8 f   main.obj
 0001:0002d2f0       __unwindfunclet$??0sentry@?$basic_ostream@DU?$char_traits@D@std@@@std@@QAE@AAV12@@Z$0 1002e2f0 f   main.obj
 0001:0002d2f8       __ehhandler$??0sentry@?$basic_ostream@DU?$char_traits@D@std@@@std@@QAE@AAV12@@Z 1002e2f8 f   main.obj
 0001:0002d320       __unwindfunclet$??1sentry@?$basic_ostream@DU?$char_traits@D@std@@@std@@QAE@XZ$0 1002e320 f   main.obj
 0001:0002d328       __ehhandler$??1sentry@?$basic_ostream@DU?$char_traits@D@std@@@std@@QAE@XZ 1002e328 f   main.obj
 0001:0002d350       __unwindfunclet$??$ProcessSinglePPrim@VDrawElementsUShort@osg@@@Triangulator@@AAEXPAVGeometry@osg@@HPAVPrimitiveSet@2@@Z$0 1002e350 f   main.obj
 0001:0002d358       __unwindfunclet$??$ProcessSinglePPrim@VDrawElementsUShort@osg@@@Triangulator@@AAEXPAVGeometry@osg@@HPAVPrimitiveSet@2@@Z$1 1002e358 f   main.obj
 0001:0002d363       __unwindfunclet$??$ProcessSinglePPrim@VDrawElementsUShort@osg@@@Triangulator@@AAEXPAVGeometry@osg@@HPAVPrimitiveSet@2@@Z$3 1002e363 f   main.obj
 0001:0002d36e       __ehhandler$??$ProcessSinglePPrim@VDrawElementsUShort@osg@@@Triangulator@@AAEXPAVGeometry@osg@@HPAVPrimitiveSet@2@@Z 1002e36e f   main.obj
 0001:0002d390       __unwindfunclet$??$ProcessSinglePPrim@VDrawElementsUInt@osg@@@Triangulator@@AAEXPAVGeometry@osg@@HPAVPrimitiveSet@2@@Z$0 1002e390 f   main.obj
 0001:0002d398       __unwindfunclet$??$ProcessSinglePPrim@VDrawElementsUInt@osg@@@Triangulator@@AAEXPAVGeometry@osg@@HPAVPrimitiveSet@2@@Z$1 1002e398 f   main.obj
 0001:0002d3a3       __unwindfunclet$??$ProcessSinglePPrim@VDrawElementsUInt@osg@@@Triangulator@@AAEXPAVGeometry@osg@@HPAVPrimitiveSet@2@@Z$3 1002e3a3 f   main.obj
 0001:0002d3ae       __ehhandler$??$ProcessSinglePPrim@VDrawElementsUInt@osg@@@Triangulator@@AAEXPAVGeometry@osg@@HPAVPrimitiveSet@2@@Z 1002e3ae f   main.obj
 0001:0002d3d0       __unwindfunclet$??$ProcessSinglePPrim@VDrawElementsUByte@osg@@@Triangulator@@AAEXPAVGeometry@osg@@HPAVPrimitiveSet@2@@Z$0 1002e3d0 f   main.obj
 0001:0002d3d8       __unwindfunclet$??$ProcessSinglePPrim@VDrawElementsUByte@osg@@@Triangulator@@AAEXPAVGeometry@osg@@HPAVPrimitiveSet@2@@Z$1 1002e3d8 f   main.obj
 0001:0002d3e3       __unwindfunclet$??$ProcessSinglePPrim@VDrawElementsUByte@osg@@@Triangulator@@AAEXPAVGeometry@osg@@HPAVPrimitiveSet@2@@Z$3 1002e3e3 f   main.obj
 0001:0002d3ee       __ehhandler$??$ProcessSinglePPrim@VDrawElementsUByte@osg@@@Triangulator@@AAEXPAVGeometry@osg@@HPAVPrimitiveSet@2@@Z 1002e3ee f   main.obj
 0001:0002d410       __unwindfunclet$??$ProcessTriStrip@VDrawElementsUInt@osg@@@Triangulator@@AAEXPAVDrawElementsUInt@osg@@V?$vector@HV?$allocator@H@std@@@std@@@Z$0 1002e410 f   main.obj
 0001:0002d418       __ehhandler$??$ProcessTriStrip@VDrawElementsUInt@osg@@@Triangulator@@AAEXPAVDrawElementsUInt@osg@@V?$vector@HV?$allocator@H@std@@@std@@@Z 1002e418 f   main.obj
 0001:0002d440       __unwindfunclet$??$ProcessTriFan@VDrawElementsUInt@osg@@@Triangulator@@AAEXPAVDrawElementsUInt@osg@@V?$vector@HV?$allocator@H@std@@@std@@@Z$0 1002e440 f   main.obj
 0001:0002d448       __ehhandler$??$ProcessTriFan@VDrawElementsUInt@osg@@@Triangulator@@AAEXPAVDrawElementsUInt@osg@@V?$vector@HV?$allocator@H@std@@@std@@@Z 1002e448 f   main.obj
 0001:0002d470       __unwindfunclet$??$toString@M@@YA?AV?$basic_string@DU?$char_traits@D@std@@V?$allocator@D@2@@std@@ABM@Z$0 1002e470 f   main.obj
 0001:0002d47c       __unwindfunclet$??$toString@M@@YA?AV?$basic_string@DU?$char_traits@D@std@@V?$allocator@D@2@@std@@ABM@Z$1 1002e47c f   main.obj
 0001:0002d49c       __ehhandler$??$toString@M@@YA?AV?$basic_string@DU?$char_traits@D@std@@V?$allocator@D@2@@std@@ABM@Z 1002e49c f   main.obj
 0001:0002d4c0       __unwindfunclet$??$toString@W4domUpAxisType@@@@YA?AV?$basic_string@DU?$char_traits@D@std@@V?$allocator@D@2@@std@@ABW4domUpAxisType@@@Z$0 1002e4c0 f   main.obj
 0001:0002d4cc       __unwindfunclet$??$toString@W4domUpAxisType@@@@YA?AV?$basic_string@DU?$char_traits@D@std@@V?$allocator@D@2@@std@@ABW4domUpAxisType@@@Z$1 1002e4cc f   main.obj
 0001:0002d4ec       __ehhandler$??$toString@W4domUpAxisType@@@@YA?AV?$basic_string@DU?$char_traits@D@std@@V?$allocator@D@2@@std@@ABW4domUpAxisType@@@Z 1002e4ec f   main.obj
 0001:0002d510       __unwindfunclet$??$toString@H@@YA?AV?$basic_string@DU?$char_traits@D@std@@V?$allocator@D@2@@std@@ABH@Z$0 1002e510 f   main.obj
 0001:0002d51c       __unwindfunclet$??$toString@H@@YA?AV?$basic_string@DU?$char_traits@D@std@@V?$allocator@D@2@@std@@ABH@Z$1 1002e51c f   main.obj
 0001:0002d53c       __ehhandler$??$toString@H@@YA?AV?$basic_string@DU?$char_traits@D@std@@V?$allocator@D@2@@std@@ABH@Z 1002e53c f   main.obj
 0001:0002d560       __unwindfunclet$??$_Construct@V?$basic_string@DU?$char_traits@D@std@@V?$allocator@D@2@@std@@V12@@std@@YAXPAV?$basic_string@DU?$char_traits@D@std@@V?$allocator@D@2@@0@ABV10@@Z$0 1002e560 f   main.obj
 0001:0002d571       __ehhandler$??$_Construct@V?$basic_string@DU?$char_traits@D@std@@V?$allocator@D@2@@std@@V12@@std@@YAXPAV?$basic_string@DU?$char_traits@D@std@@V?$allocator@D@2@@0@ABV10@@Z 1002e571 f   main.obj
 0001:0002d590       __unwindfunclet$??$_Construct@VReadResult@ReaderWriter@osgDB@@V123@@std@@YAXPAVReadResult@ReaderWriter@osgDB@@ABV123@@Z$0 1002e590 f   main.obj
 0001:0002d5a1       __ehhandler$??$_Construct@VReadResult@ReaderWriter@osgDB@@V123@@std@@YAXPAVReadResult@ReaderWriter@osgDB@@ABV123@@Z 1002e5a1 f   main.obj
 0001:0002d5c0       __unwindfunclet$??$_Construct@U?$pair@V?$basic_string@DU?$char_traits@D@std@@V?$allocator@D@2@@std@@V12@@std@@U12@@std@@YAXPAU?$pair@V?$basic_string@DU?$char_traits@D@std@@V?$allocator@D@2@@std@@V12@@0@ABU10@@Z$0 1002e5c0 f   main.obj
 0001:0002d5d1       __ehhandler$??$_Construct@U?$pair@V?$basic_string@DU?$char_traits@D@std@@V?$allocator@D@2@@std@@V12@@std@@U12@@std@@YAXPAU?$pair@V?$basic_string@DU?$char_traits@D@std@@V?$allocator@D@2@@std@@V12@@0@ABU10@@Z 1002e5d1 f   main.obj
 0001:0002d5f0       __unwindfunclet$??$ProcessTriStrip@VDrawElementsUShort@osg@@@Triangulator@@AAEXPAVDrawElementsUShort@osg@@V?$vector@HV?$allocator@H@std@@@std@@@Z$0 1002e5f0 f   main.obj
 0001:0002d5f8       __ehhandler$??$ProcessTriStrip@VDrawElementsUShort@osg@@@Triangulator@@AAEXPAVDrawElementsUShort@osg@@V?$vector@HV?$allocator@H@std@@@std@@@Z 1002e5f8 f   main.obj
 0001:0002d620       __unwindfunclet$??$ProcessTriFan@VDrawElementsUShort@osg@@@Triangulator@@AAEXPAVDrawElementsUShort@osg@@V?$vector@HV?$allocator@H@std@@@std@@@Z$0 1002e620 f   main.obj
 0001:0002d628       __ehhandler$??$ProcessTriFan@VDrawElementsUShort@osg@@@Triangulator@@AAEXPAVDrawElementsUShort@osg@@V?$vector@HV?$allocator@H@std@@@std@@@Z 1002e628 f   main.obj
 0001:0002d650       __unwindfunclet$??$ProcessTriStrip@VDrawElementsUByte@osg@@@Triangulator@@AAEXPAVDrawElementsUByte@osg@@V?$vector@HV?$allocator@H@std@@@std@@@Z$0 1002e650 f   main.obj
 0001:0002d658       __ehhandler$??$ProcessTriStrip@VDrawElementsUByte@osg@@@Triangulator@@AAEXPAVDrawElementsUByte@osg@@V?$vector@HV?$allocator@H@std@@@std@@@Z 1002e658 f   main.obj
 0001:0002d680       __unwindfunclet$??$ProcessTriFan@VDrawElementsUByte@osg@@@Triangulator@@AAEXPAVDrawElementsUByte@osg@@V?$vector@HV?$allocator@H@std@@@std@@@Z$0 1002e680 f   main.obj
 0001:0002d688       __ehhandler$??$ProcessTriFan@VDrawElementsUByte@osg@@@Triangulator@@AAEXPAVDrawElementsUByte@osg@@V?$vector@HV?$allocator@H@std@@@std@@@Z 1002e688 f   main.obj
 0001:0002d6b0       __ehhandler$??$_Construct@V?$_String_iterator@_WU?$char_traits@_W@std@@V?$allocator@_W@2@@std@@@?$basic_string@DU?$char_traits@D@std@@V?$allocator@D@2@@std@@QAEXV?$_String_iterator@_WU?$char_traits@_W@std@@V?$allocator@_W@2@@1@0Uforward_iterator_tag@1@@Z 1002e6b0 f   main.obj
 0001:0002d6d0       __ehhandler$??$_Construct@V?$_String_iterator@DU?$char_traits@D@std@@V?$allocator@D@2@@std@@@?$basic_string@_WU?$char_traits@_W@std@@V?$allocator@_W@2@@std@@QAEXV?$_String_iterator@DU?$char_traits@D@std@@V?$allocator@D@2@@1@0Uforward_iterator_tag@1@@Z 1002e6d0 f   main.obj
 0001:0002d6f0       __unwindfunclet$?OpenZipInternal@@YAPAUHZIP__@@PAXIKPBD@Z$0 1002e6f0 f   unzip.obj
 0001:0002d6fb       __ehhandler$?OpenZipInternal@@YAPAUHZIP__@@PAXIKPBD@Z 1002e6fb f   unzip.obj
 0001:0002d720       __unwindfunclet$?ideflate@TZip@@QAEKPAUzlist@@@Z$0 1002e720 f   zip.obj
 0001:0002d72b       __ehhandler$?ideflate@TZip@@QAEKPAUzlist@@@Z 1002e72b f   zip.obj
 0001:0002d746       __unwindfunclet$?CreateZipInternal@@YAPAUHZIP__@@PAXIKPBD@Z$0 1002e746 f   zip.obj
 0001:0002d751       __ehhandler$?CreateZipInternal@@YAPAUHZIP__@@PAXIKPBD@Z 1002e751 f   zip.obj
 0001:0002d770       ??__EINVLN_2@osg@@YAXXZ    1002e770 f   main.obj
 0001:0002d790       ??__EX_AXIS@osg@@YAXXZ     1002e790 f   main.obj
 0001:0002d7c0       ??__EY_AXIS@osg@@YAXXZ     1002e7c0 f   main.obj
 0001:0002d7f0       ??__EZ_AXIS@osg@@YAXXZ     1002e7f0 f   main.obj
 0001:0002d820       ??__EdefaultProp@osgDB@@YAXXZ 1002e820 f   main.obj
 0001:0002d850       ??__EBEGIN_BRACKET@osgDB@@YAXXZ 1002e850 f   main.obj
 0001:0002d880       ??__EEND_BRACKET@osgDB@@YAXXZ 1002e880 f   main.obj
 0001:0002d8b0       ??__EgParserDir@@YAXXZ     1002e8b0 f   main.obj
 0001:0002d8d0       ??__EINVLN_2@osg@@YAXXZ    1002e8d0 f   Triangulator.obj
 0001:0002d8f0       ??__EX_AXIS@osg@@YAXXZ     1002e8f0 f   Triangulator.obj
 0001:0002d920       ??__EY_AXIS@osg@@YAXXZ     1002e920 f   Triangulator.obj
 0001:0002d950       ??__EZ_AXIS@osg@@YAXXZ     1002e950 f   Triangulator.obj
 0001:0002d980       ??__FdefaultProp@osgDB@@YAXXZ 1002e980 f   main.obj
 0001:0002d990       ??__FBEGIN_BRACKET@osgDB@@YAXXZ 1002e990 f   main.obj
 0001:0002d9a0       ??__FEND_BRACKET@osgDB@@YAXXZ 1002e9a0 f   main.obj
 0001:0002d9b0       ??__FgParserDir@@YAXXZ     1002e9b0 f   main.obj

 Exports

  ordinal    name

        1    _Convert
               exported name: Convert
        2    _ConvertFiles
               exported name: ConvertFiles
        3    _ConvertZipStream
               exported name: ConvertZipStream
        4    _CountVerticies
               exported name: CountVerticies
        5    _CountVerticiesFile
               exported name: CountVerticiesFile
        6    _DeleteCMemory
               exported name: DeleteCMemory
        7    _GetTextureReferences
               exported name: GetTextureReferences
        8    _GetTextureReferencesFile
               exported name: GetTextureReferencesFile
        9    _GetTexturesOnObjects
               exported name: GetTexturesOnObjects
       10    _GetTexturesOnObjectsFile
               exported name: GetTexturesOnObjectsFile
       11    _GetTransformProperties
               exported name: GetTransformProperties
       12    _GetTransformPropertiesFile
               exported name: GetTransformPropertiesFile
       13    _Shutdown
               exported name: Shutdown
       14    _Startup
               exported name: Startup
       15    _VerifyType
               exported name: VerifyType
       16    _VerifyTypeFile
               exported name: VerifyTypeFile
